(lp0
(lp1
F12.717436733341525
aF2.976069003373041
aF2.509986206618677
aF42.52927063880342
aF2.5817566942250165
aF0.9487460944260921
aa(lp2
F28.244582371155825
aF1.3382536553731468
aF2.9984509082812125
aF75.40227019763215
aF1.5185498077587567
aF2.7315097412763456
aa(lp3
F58.767118665912534
aF4.206610809289084
aF0.5186027612971028
aF18.847960964481192
aF0.118439098010924
aF2.2589359944592315
aa(lp4
F69.98453628436927
aF4.3714971028428
aF1.9212988144860572
aF53.79609989227596
aF2.165475781442156
aF0.914341538707844
aa(lp5
F73.4801318820487
aF0.2419061328087535
aF1.4166200912942863
aF72.39280451305147
aF4.717837433448352
aF2.996755036692245
aa(lp6
F99.61582662144964
aF4.460164395234026
aF2.3467188195614663
aF55.486378308547955
aF2.239989746963741
aF1.799863251852507
aa(lp7
F19.561276960791407
aF3.541351145704717
aF2.0308005693001014
aF79.32804204760319
aF3.5657252579167986
aF2.8839776428154833
aa(lp8
F32.92382204603582
aF1.7208564127686303
aF2.364925791955392
aF37.48009745020945
aF4.19522006042051
aF2.230594867873191
aa(lp9
F91.8640763646159
aF3.9423034534197336
aF2.7377021340479306
aF10.224328853649812
aF3.1676102422537253
aF1.3769830818978228
aa(lp10
F19.197923123183603
aF4.586649072694223
aF0.25420460562128566
aF29.293365668649397
aF3.2374374520124087
aF2.4918834818264566
aa(lp11
F92.26921765581586
aF1.9290702458218045
aF0.5876576522371405
aF12.851658386334696
aF4.559230361693633
aF2.198365674476142
aa(lp12
F94.10302823623408
aF2.3393039233744926
aF2.484122105241627
aF97.47111296491755
aF4.1343439250991185
aF2.85536674583913
aa(lp13
F32.11269825275317
aF1.2653859012152646
aF1.9314592756901927
aF28.62784446050203
aF3.420793708601848
aF0.2829106104943876
aa(lp14
F13.571938775590542
aF4.338717212844426
aF0.5180009172362116
aF40.330457268912845
aF4.238405311115128
aF2.077338451583273
aa(lp15
F48.993106998904366
aF1.1361189820613387
aF0.00020188215077787675
aF98.54478216972147
aF0.5624771556220043
aF0.5540229265632528
aa(lp16
F69.57219737634247
aF4.910976639224987
aF2.637903197891818
aF70.21853729303955
aF0.056854137595868104
aF0.09536897360426289
aa(lp17
F87.42508175695964
aF2.308978766035869
aF1.3524362682166542
aF58.94760485823257
aF1.271294848154933
aF0.789130560778675
aa(lp18
F1.9907131578312143
aF4.930062013741105
aF1.107830360901602
aF74.7515153694477
aF3.0192812187599594
aF0.027853930527129367
aa(lp19
F36.50911346838226
aF1.7560103620044243
aF1.8964851980881021
aF38.759539434185896
aF2.0351396869739236
aF1.2837754339239367
aa(lp20
F11.547984064651773
aF2.285375850001818
aF0.5900571560149619
aF44.16530603145075
aF2.7121366741481143
aF2.2168719270633193
aa(lp21
F71.73230971528021
aF1.079770097690348
aF0.8857477236163291
aF44.97591493656894
aF2.3467372107772313
aF2.7744917219451555
aa(lp22
F11.549605063282442
aF1.1159900828155833
aF2.5925736637129897
aF88.8458649669416
aF1.3275356081797918
aF2.6864944032940996
aa(lp23
F50.13761039206168
aF4.3728563723211336
aF1.2221385375517164
aF47.05496401000629
aF1.597706447766058
aF0.9270781774945318
aa(lp24
F86.40721919601602
aF2.1054486982419625
aF0.6289561371856071
aF32.04500940463384
aF1.4528199769952104
aF2.1726688915141184
aa(lp25
F6.167937163399606
aF4.7178818658867225
aF0.3271989829009666
aF53.497082676290205
aF4.1616515443246405
aF0.212450093036204
aa(lp26
F78.23121853157508
aF3.7680786880498434
aF1.7696067484157707
aF34.825992845031664
aF0.6181660241596748
aF2.917829557998722
aa(lp27
F66.62401004750116
aF3.7430243640516525
aF1.798910504174378
aF21.652310181940436
aF0.8261990823699034
aF0.9534593989374406
aa(lp28
F28.618387316174243
aF4.928367028388624
aF0.9972981982072401
aF61.376019358934464
aF1.2488752985481284
aF0.4308170019489046
aa(lp29
F16.04326816539392
aF3.9318205024972563
aF1.490533175023971
aF81.37013706129434
aF4.090740627572888
aF1.0781112789925138
aa(lp30
F0.05947005967514851
aF4.4557139776987835
aF1.9042893561754934
aF20.045563298750725
aF1.4201241949402743
aF0.3384416245190289
aa(lp31
F91.66730469532637
aF4.890538094681107
aF1.2644069126131363
aF91.52159776912869
aF3.463372500349026
aF2.139554555569622
aa(lp32
F98.56260255946447
aF0.8472607248581737
aF1.250041446975502
aF15.950369936445853
aF1.1800700177901435
aF0.7976740074523172
aa(lp33
F89.46055651609343
aF2.188746930021612
aF1.1388951015099633
aF72.71982197376367
aF3.4780237643089484
aF1.20384840583566
aa(lp34
F86.10303741689194
aF0.490868927085753
aF2.903204544110306
aF42.764046676196365
aF4.833299980847284
aF0.0007019982262870261
aa(lp35
F89.01951941723335
aF3.6329810210893103
aF0.9832486396300866
aF90.62703033821484
aF1.0361509569986704
aF2.459337231109338
aa(lp36
F9.415746230926503
aF4.310895630003526
aF2.3501255487574255
aF12.970091503725833
aF1.437139712078841
aF0.9837401883540648
aa(lp37
F87.67494187255429
aF2.751372110153108
aF2.4405039233297785
aF98.07141001330541
aF0.48742890080473444
aF2.922170201962395
aa(lp38
F19.864418136259985
aF1.5133061194595614
aF1.1874900455422628
aF5.21730710742998
aF3.129848194110529
aF0.04613999376209932
aa(lp39
F97.18083922270002
aF0.7740605181388116
aF0.6840672960694223
aF45.71740957103187
aF2.1458153479536426
aF2.6750024435933364
aa(lp40
F85.69079644707828
aF2.696368316250864
aF1.9272127281113838
aF44.51847080336064
aF4.565987311728417
aF2.2643879120257973
aa(lp41
F84.82526257126177
aF2.6112444111781175
aF1.7263088205993635
aF13.03720573888414
aF2.1872949845299767
aF0.9335602270033216
aa(lp42
F32.36531222203985
aF1.6228293166968748
aF1.1052074517061388
aF82.29968693754367
aF0.7535097858984291
aF2.089589084259657
aa(lp43
F50.484485813083126
aF3.462758818877934
aF0.29368339195390325
aF84.62885009971099
aF3.957923707659287
aF2.2404164834613565
aa(lp44
F91.20875281652263
aF4.302676149886741
aF0.18483217849979539
aF26.682341608146597
aF3.3421704036887636
aF0.27206211687732484
aa(lp45
F26.584503490082046
aF0.016437922578166342
aF1.8904104237941017
aF71.26260043425415
aF4.972993959432372
aF1.5276996417495172
aa(lp46
F55.461401351767826
aF4.006617525009331
aF2.9210206140941906
aF69.07313309983236
aF3.8535789486977032
aF0.6393969738794787
aa(lp47
F3.8229433261191215
aF0.46422772047856997
aF1.6419415282002534
aF85.78562143787278
aF3.133912626955071
aF1.107085266812604
aa(lp48
F11.83645767639211
aF4.098710363672188
aF1.7166991411896932
aF86.53009474943846
aF0.6735719573835325
aF1.903493347300479
aa(lp49
F8.785219144010103
aF1.2230419230394247
aF1.629410792323215
aF70.5800747154296
aF4.51079511285943
aF2.7582307435573834
aa(lp50
F42.8299777688437
aF4.127701481381331
aF2.4055201628125173
aF59.26462918954226
aF3.226776885806379
aF2.79823433369881
aa(lp51
F80.60936132788919
aF2.9259979502388327
aF2.0508541792796016
aF81.17202577254814
aF4.913992651810611
aF1.7819873018368753
aa(lp52
F58.79520712863076
aF3.7644099950353898
aF0.8731423526284747
aF47.56861793362576
aF1.8810599707724345
aF1.8105446301662953
aa(lp53
F50.92922931394116
aF3.27429783552555
aF2.7178244027702325
aF34.083118764055676
aF3.9560438651089314
aF0.3123420592214222
aa(lp54
F43.98004704112335
aF1.7267550939647442
aF0.0075936456209182435
aF55.3601787850561
aF4.031254299751487
aF1.061736989181652
aa(lp55
F15.936488860828268
aF4.4071739552768125
aF0.49549988246156074
aF77.17450359065045
aF2.982247214122161
aF2.8145673691948154
aa(lp56
F78.66078595113021
aF2.2884062369766083
aF2.0355784090228304
aF42.82286596430913
aF2.26628635517811
aF0.6887517027010572
aa(lp57
F74.35511146096506
aF4.79513962028861
aF0.04975550113439853
aF8.650293686267041
aF4.749624816389667
aF2.488545912411273
aa(lp58
F32.21417930721433
aF2.3885924161931977
aF2.395696453748276
aF36.178572348892466
aF0.01613251637316182
aF2.0287601147811243
aa(lp59
F3.4218342881459307
aF3.4805192135305543
aF2.1643549543918903
aF85.38620206274538
aF3.9576786701139417
aF1.8475253349686764
aa(lp60
F81.46083163053886
aF3.418292922136768
aF0.3392617418320746
aF92.5772102415632
aF0.6574733618655493
aF0.41564688604721456
aa(lp61
F30.231008259890057
aF1.000867870402803
aF2.631047447514431
aF58.44183576729273
aF4.8217062788652365
aF1.5664670573857922
aa(lp62
F31.896582593001433
aF3.851988914364728
aF0.28933595698685843
aF40.049538903206475
aF0.7495501338404481
aF1.6325379281911332
aa(lp63
F91.60229986827004
aF2.86472851456143
aF2.6735013366491236
aF62.16855445000192
aF1.3618166973378347
aF0.16247671592497237
aa(lp64
F83.96030885165521
aF2.977374023574333
aF1.0998230678559688
aF3.2221837233913475
aF4.114277355023386
aF2.3357922937682494
aa(lp65
F27.018736382963148
aF1.2285907328810657
aF1.3989400332451565
aF85.95769704264293
aF1.5357645057373615
aF1.5036872691639989
aa(lp66
F41.36273807229557
aF1.64502588048481
aF1.2608672352793326
aF17.841740729229382
aF4.723238015247182
aF1.1863195883605195
aa(lp67
F1.3945090775311253
aF4.589402765441661
aF2.060662578952075
aF85.93943666318877
aF3.784524475262506
aF2.9286751555486283
aa(lp68
F78.23375475501791
aF2.038595520838648
aF0.4606032877716848
aF75.59648319619826
aF1.2278269604806642
aF2.4984494033749756
aa(lp69
F22.444940020539306
aF0.08783493608919668
aF1.042389134426121
aF66.85110273541422
aF4.742123105826104
aF0.39879008907432223
aa(lp70
F44.13356343636758
aF1.1009554622090345
aF1.9687185488781513
aF95.9188933871211
aF4.065932359643371
aF0.5741669191456372
aa(lp71
F68.22364316114567
aF1.0067351867166419
aF0.9508444710768083
aF97.84235822666353
aF4.62477508301607
aF1.0318556908747065
aa(lp72
F93.30746825039495
aF2.9030440179685564
aF1.9284429299189174
aF65.81909661363028
aF2.8094389668943447
aF2.149921178492518
aa(lp73
F81.4478046437819
aF0.26856821617192383
aF2.989891548065292
aF89.75675826769123
aF4.1900427239470055
aF1.6497365372168715
aa(lp74
F7.949386064947661
aF2.054750404803266
aF0.4720613965016873
aF9.74381597527353
aF0.013367365107416762
aF0.04096105293362817
aa(lp75
F9.264082845976262
aF4.3117058019707954
aF1.7737218660744323
aF54.649941803319166
aF2.666099465400129
aF0.6542155646854927
aa(lp76
F53.18285113990897
aF1.5706681519326104
aF1.3593734713951902
aF77.3903268123762
aF0.16382721093582353
aF2.16689541258901
aa(lp77
F54.81883910293674
aF4.99625101457429
aF1.8871339942942758
aF99.08806055722555
aF4.36305782495248
aF1.9183924277105264
aa(lp78
F67.91626282686657
aF0.8516208716482515
aF2.357849428399325
aF19.261747028104693
aF2.9005301121712908
aF1.5802525225802135
aa(lp79
F47.17457969144942
aF3.7367560308406684
aF2.6805005980441647
aF62.33648994964132
aF2.7513307439415713
aF2.1531861693897394
aa(lp80
F59.69393120814146
aF2.4030249924049274
aF2.9846113107968844
aF47.7435894924937
aF2.6066373703846555
aF0.023357272856559752
aa(lp81
F43.4690162883669
aF1.2053857596753514
aF2.4415639865693084
aF76.30447435557393
aF1.221641788056792
aF2.7179897814393117
aa(lp82
F63.32032508732348
aF3.1521452097705245
aF0.5556553125913186
aF13.476921470447756
aF0.5165288023406789
aF2.6088284079427257
aa(lp83
F49.59017474210741
aF4.697780003327914
aF1.951711043000427
aF89.56969056955997
aF1.861832337406208
aF1.1251681474438948
aa(lp84
F50.76402309563564
aF1.5562552904353788
aF1.655381880987665
aF65.0375085168903
aF3.8069386283743736
aF2.8713272485836754
aa(lp85
F8.776479948228955
aF4.910609361129696
aF1.5916050837996558
aF60.13000038854749
aF2.498234184292251
aF2.58478860519552
aa(lp86
F84.48898264948541
aF0.6409149118332808
aF2.518290129120719
aF20.455756278475334
aF1.888173136226769
aF1.3539625046985915
aa(lp87
F26.338090034086914
aF2.929134546641683
aF0.5203289628198298
aF63.83404659204919
aF1.5937404531314932
aF0.3940467795315956
aa(lp88
F88.91475369186178
aF3.898844651598075
aF2.811939614080626
aF70.89272248220264
aF2.7132452164954253
aF1.1547133802933753
aa(lp89
F25.092408582367597
aF1.2294575931411296
aF2.070499237377488
aF42.10192088021337
aF3.278971810315743
aF2.7814629318579907
aa(lp90
F15.515370639373538
aF3.584968562528758
aF2.952185909919101
aF70.91462104827538
aF2.7368079861296275
aF1.219667422305747
aa(lp91
F1.6211011714570511
aF0.744340988181848
aF0.3656105084242125
aF8.627162493827568
aF2.4838533557212705
aF2.6028088683992565
aa(lp92
F54.35862610526199
aF3.9439260582389153
aF0.33265888740716154
aF1.5595074973637657
aF0.13657804220125913
aF0.6994096276628619
aa(lp93
F42.275129062837735
aF4.67154211781204
aF0.6372632249298154
aF96.75649662062969
aF2.8562503439246063
aF0.11267093546989926
aa(lp94
F76.68777344652588
aF1.599811467151579
aF1.3158827656612002
aF97.04752013400464
aF3.061314110954048
aF1.4984837711961179
aa(lp95
F10.811275462407476
aF0.7610472903878823
aF1.8975326828648533
aF98.20043937311449
aF4.910619995375266
aF2.034867134146463
aa(lp96
F60.0809523760759
aF0.6865953675364994
aF2.389805843821504
aF5.674875426454462
aF3.4087216935099267
aF1.1040084953449605
aa(lp97
F21.862306979447908
aF3.597616342229238
aF1.2332183942762618
aF16.433409442432257
aF3.5903258158180713
aF0.7650292586796434
aa(lp98
F33.20849627670357
aF3.0291406409567423
aF2.9751223191194334
aF99.55603869173041
aF1.9401660216607581
aF1.8906443908820108
aa(lp99
F47.32365616949083
aF3.010290541605063
aF2.1979486551383873
aF34.210622031532566
aF3.54208781507424
aF2.142952595683756
aa(lp100
F84.11150481219933
aF4.650326480367214
aF0.31760583405914744
aF38.68862011510373
aF2.86020885554572
aF0.6613797295526754
aa(lp101
F23.955549716905335
aF1.0970700051833682
aF0.7920002818828794
aF13.852672823842738
aF2.5220844710357677
aF2.9165265016574318
aa(lp102
F9.306247061629824
aF2.3184517055440206
aF1.1457574934518617
aF5.559076553516473
aF2.5909516963117247
aF2.144718073237035
aa(lp103
F15.005341710980835
aF2.052248588438859
aF0.0234354100991373
aF43.04639657676203
aF0.6260837205016462
aF0.7138572553050357
aa(lp104
F61.11215466807759
aF1.4184685875913305
aF0.8264129833952012
aF36.600641737149765
aF1.218716304164854
aF1.528438689612611
aa(lp105
F50.7455770428886
aF1.1120913226677627
aF0.37150968132632867
aF59.557710501371766
aF0.842473868832378
aF2.5709513540644258
aa(lp106
F8.970614065396331
aF4.620049926473373
aF2.2190013874443473
aF15.597528500595947
aF2.597999593165425
aF1.4804942341332201
aa(lp107
F94.8719186529347
aF2.6337609230102395
aF1.9441925920393985
aF43.686480657458226
aF1.6285267227045686
aF0.4469848288291498
aa(lp108
F82.7702438081383
aF4.2786821848424585
aF0.15084333921395798
aF25.239237633039536
aF1.8533031865371674
aF2.586214339962861
aa(lp109
F72.0103142254375
aF3.2195155837312357
aF2.490221131738764
aF33.75362230355873
aF1.9567106821685043
aF0.09869412741026828
aa(lp110
F33.687892026168484
aF1.3892467840688028
aF1.1719429354306483
aF38.03171886660621
aF2.4033841803417304
aF0.4361215878896725
aa(lp111
F30.309944623253582
aF0.5293393526856227
aF2.458529692870728
aF78.17958873683133
aF0.16317083168902513
aF0.3242160256347705
aa(lp112
F30.907638033820316
aF0.9762928547623434
aF0.24473439640360772
aF5.011925411057816
aF3.361434370508028
aF2.40758327447063
aa(lp113
F68.92213413201375
aF3.7369608709743654
aF0.8642674083978257
aF90.14662297009801
aF3.8844384188657384
aF2.576343294588156
aa(lp114
F47.23107055045778
aF2.3859533624612705
aF2.1670485488776423
aF92.42910246610224
aF2.9532525122370226
aF0.2665127732047622
aa(lp115
F62.4873637856873
aF4.626597606044864
aF1.720289452917532
aF83.2704249392607
aF4.6845762808048645
aF2.4705640757932192
aa(lp116
F44.57379727836639
aF3.927926549266357
aF2.562350324287137
aF59.19288232297417
aF0.49031255407459895
aF2.42760797389319
aa(lp117
F94.40017470218885
aF2.0521448623721734
aF0.051397906285542194
aF8.78720348812898
aF0.5817182484255029
aF1.703050649902755
aa(lp118
F62.27653288059229
aF0.13035141038299058
aF0.18361182093024608
aF86.53002541499323
aF0.24860278976148176
aF1.4570671613465376
aa(lp119
F84.05808346540145
aF2.6122317910179866
aF1.2843038102211344
aF74.53476192692959
aF1.3300689068022913
aF0.15779346382490478
aa(lp120
F29.854501669651956
aF1.9412443582421761
aF0.4115724069257718
aF47.070303302507796
aF3.15505617596838
aF1.703837372262794
aa(lp121
F49.19373222222501
aF1.1060071142668715
aF1.9559240572999732
aF68.96717043549434
aF1.1438236477911412
aF2.9078664731078807
aa(lp122
F85.09653541264807
aF4.243689435419254
aF2.823069224329558
aF83.59655365844446
aF4.783238446645349
aF1.0474427429911057
aa(lp123
F63.2627285819503
aF2.966339855642128
aF0.9673803289746867
aF31.555933958392124
aF1.8507260009122923
aF0.09171686695107573
aa(lp124
F31.593662034252734
aF0.6613067792273186
aF1.4132151631253311
aF45.23441534007399
aF4.1088484406497185
aF0.6266643013693287
aa(lp125
F44.64077635400374
aF0.03325063482504442
aF2.409876172966076
aF35.23893269262051
aF2.3812242065029405
aF2.2079155438165365
aa(lp126
F28.647891016784776
aF2.6651704073079814
aF2.916369843324004
aF67.88723074700559
aF2.8197783936285954
aF1.9289417586494457
aa(lp127
F57.67129169427946
aF4.329773470470207
aF0.7130720497631501
aF61.949870008397944
aF4.136423404442474
aF1.686135016218076
aa(lp128
F8.143099318841685
aF0.0841702176076009
aF2.5259076146038613
aF40.76625573796346
aF3.401631083383344
aF2.706176481480112
aa(lp129
F34.456558149540804
aF4.552874070190524
aF2.83546646700778
aF86.29460223492727
aF4.232842316773082
aF0.21644109872930495
aa(lp130
F45.59645012825915
aF2.0856838483786024
aF1.5219513563699703
aF37.59178238226516
aF1.7071148074469644
aF0.185019561833482
aa(lp131
F87.56276705991071
aF4.508016215012701
aF1.196865171089916
aF73.72767336708624
aF2.7561443632590827
aF0.9770489734137493
aa(lp132
F78.87150831564699
aF4.672588552107584
aF2.284023494218386
aF81.86912857350748
aF4.176276899948693
aF1.7080857958840165
aa(lp133
F51.54887833919367
aF2.6455278496262262
aF2.0838904354164596
aF23.591354972143442
aF2.1296312174042247
aF1.0840050814969437
aa(lp134
F81.37404173966985
aF1.5005012598997092
aF1.3318440888639271
aF89.82679505289923
aF1.3089691680038813
aF2.017929668595285
aa(lp135
F95.98454662224044
aF0.6438310813514969
aF0.06700190035541032
aF32.04190792577367
aF1.8100249029555076
aF2.411788163958068
aa(lp136
F62.06405685495036
aF0.9459921378330088
aF2.415782503116459
aF3.8049991651693316
aF3.8806229011235995
aF1.0246563810181395
aa(lp137
F75.06788612019706
aF2.997439866755249
aF2.919356271504562
aF10.094308527724783
aF3.750382793568276
aF1.9981530727659376
aa(lp138
F91.87268245524352
aF1.2691841209967913
aF0.4885063521214913
aF50.067547187875086
aF3.732105657324763
aF2.7644621569211223
aa(lp139
F83.30640187580929
aF4.72331267255803
aF1.0021698077464558
aF10.793102214401717
aF4.361563589834709
aF2.546137928492107
aa(lp140
F98.64459338860911
aF1.0457921363560996
aF0.8094972058682122
aF85.05544274099783
aF4.199320373744842
aF1.8820253212936335
aa(lp141
F34.56357025540314
aF4.3141876925002745
aF0.7701283648487696
aF30.613797518491538
aF3.8823045609280307
aF1.4256745375053494
aa(lp142
F42.35137136748042
aF3.0763752310775616
aF0.10200130075972735
aF47.30849032669197
aF2.4042706320253027
aF0.2677440740538094
aa(lp143
F78.83134711689884
aF2.612255693328036
aF2.699603673344754
aF57.49318403428815
aF4.335672554269884
aF1.4182073049229342
aa(lp144
F99.32257823400631
aF4.614345436546508
aF0.506956046486492
aF45.00332450047829
aF0.06383327439653197
aF2.2154435911390027
aa(lp145
F75.17661273428634
aF2.576043475650012
aF1.0027549155032436
aF43.70714917562773
aF1.9980174035530762
aF0.7989718082370335
aa(lp146
F41.34190400653155
aF1.153762646665586
aF1.2038945515739197
aF58.69924021443783
aF0.820788362576691
aF1.4937370819377245
aa(lp147
F53.89606608358585
aF4.057929111043062
aF1.82904878402335
aF17.124033511130698
aF1.8618530415987322
aF1.5856788567123272
aa(lp148
F90.25236774396565
aF2.947801218878938
aF2.6581415888088484
aF91.13926804391807
aF4.228744703638034
aF1.6664568524194943
aa(lp149
F82.43686769701829
aF0.8796663536629218
aF2.6084498622984404
aF94.37259722614458
aF3.01383801412354
aF0.22026234988666138
aa(lp150
F39.84262407933292
aF2.6537175040753707
aF1.2152321121412824
aF0.250924286198706
aF2.739966996033234
aF2.936074287262006
aa(lp151
F58.59743599404816
aF3.2337704702642123
aF1.827434131916503
aF95.24074279494936
aF4.13834795625706
aF2.075142436242077
aa(lp152
F78.02348476894275
aF0.5990943680207939
aF0.6347180553768044
aF71.26147221735192
aF2.477081776203149
aF1.0792852343755786
aa(lp153
F85.42874057596309
aF1.961261709736641
aF0.316771499248824
aF82.65053910521148
aF4.032728053542502
aF1.750878745602196
aa(lp154
F53.151580574443216
aF4.610290248350428
aF1.8854274483994102
aF82.01818753703206
aF3.0683089709201887
aF2.962869300432673
aa(lp155
F46.84938803042707
aF0.6563949388109969
aF2.0148822673832494
aF9.470823351555147
aF1.7784708653231767
aF2.636446775499732
aa(lp156
F17.91439181262171
aF0.06570841933847826
aF1.7669853542697993
aF12.73376434886736
aF1.3040115441583593
aF2.497041584636973
aa(lp157
F18.7420174511315
aF2.4323039276406186
aF0.5570094078827025
aF73.2474816692832
aF1.3066320061490366
aF1.851500808006174
aa(lp158
F77.00777152022836
aF4.792019992756426
aF2.1878084163382523
aF93.40006282775668
aF4.177997034140542
aF0.05773989770324783
aa(lp159
F52.997846555845655
aF0.3751941760961841
aF2.3610321444999345
aF69.29977440416874
aF3.0636248815140577
aF0.2869355274833649
aa(lp160
F54.582369141874956
aF4.157048328542676
aF0.3623294472851081
aF48.595525676782515
aF4.0616998387051755
aF0.39563999721887233
aa(lp161
F46.46707414572179
aF4.9427576947513305
aF0.8627805611882556
aF68.77197695823615
aF3.706124622420048
aF1.5960500761375014
aa(lp162
F81.80884253636755
aF1.866464412324293
aF1.163723601060563
aF94.37056395231801
aF3.9496768864767127
aF1.6692836255563077
aa(lp163
F60.198655564340044
aF3.354342436473967
aF2.560395173058396
aF18.420331994614237
aF0.4763014240312591
aF2.8187377461580594
aa(lp164
F36.33169679975203
aF1.364762577262177
aF1.0022338200070382
aF30.84902559041087
aF0.6812403174576004
aF2.9833565897435363
aa(lp165
F63.15346082617342
aF3.9095803499242807
aF0.9124173366873801
aF66.79829781525507
aF4.122642769623205
aF0.597131232310524
aa(lp166
F45.22061140703142
aF3.9643856605751644
aF0.24424681181170804
aF8.216870624334627
aF1.3922434452100192
aF2.7113725735189718
aa(lp167
F51.52905098986651
aF0.5806334801165403
aF1.4897598730176316
aF19.731804940513108
aF4.309809414918506
aF0.40390824271266423
aa(lp168
F92.82548537915044
aF0.07535808688450385
aF2.212222375722807
aF33.79937213502561
aF3.200658023874061
aF0.9684052669311122
aa(lp169
F19.90738690006657
aF3.9212881581786134
aF2.3609221733254206
aF56.1297847947168
aF3.1531321204552043
aF2.1054104058294385
aa(lp170
F33.06663312967424
aF4.09407141963487
aF2.194160537336233
aF49.746595132062566
aF2.9482320799670276
aF1.7107871499399243
aa(lp171
F93.60302029351996
aF0.8633510682083079
aF2.087147717724113
aF73.73926114142223
aF3.896932621163379
aF0.18336350489747144
aa(lp172
F82.94355446824032
aF1.6908881439581513
aF2.254166837833342
aF28.472810801641803
aF3.917791487292356
aF2.6738810274390565
aa(lp173
F83.3437657004237
aF1.9742575358405001
aF1.578502965236706
aF59.05693447628758
aF2.585942648218575
aF2.855085031822893
aa(lp174
F44.79988244920793
aF4.891514525868299
aF0.6555825784032782
aF59.259630794086014
aF3.953736319367112
aF2.199344791371674
aa(lp175
F14.578064773215537
aF0.7351319960723535
aF2.7661247592252107
aF14.977826282281903
aF0.436029722301719
aF2.8499385031141227
aa(lp176
F37.877037765692876
aF3.570171226427343
aF1.5184479556543438
aF34.939448121637184
aF3.499716638325528
aF0.8149306252014263
aa(lp177
F58.33966342861452
aF0.05107471906437233
aF2.4316064355549116
aF78.27502253180124
aF0.7756484201846087
aF0.6134333746792017
aa(lp178
F21.819662909800453
aF0.8346492848575177
aF2.2574898396277234
aF58.84291387110512
aF1.2218229296863932
aF2.320529069659113
aa(lp179
F2.0803322699455173
aF1.3489368605089362
aF0.2566487654667744
aF24.34783094034525
aF0.340471454631292
aF0.829926530188871
aa(lp180
F27.77719159925769
aF0.6709435339870246
aF1.1574850256349567
aF38.73867688495357
aF4.412611601014544
aF0.39640568783291097
aa(lp181
F83.01884942709935
aF2.273903964993875
aF0.8853841898170502
aF66.15528792293598
aF1.1543913269473767
aF0.5659380642022521
aa(lp182
F30.105737070199222
aF1.8310935073675894
aF1.5498762860043507
aF42.56457119715712
aF2.766380794002561
aF1.9799257085088908
aa(lp183
F70.25667127068346
aF2.668165012514583
aF1.756164385185135
aF95.8082087827777
aF4.370421823564989
aF2.0390476538665494
aa(lp184
F64.1011766352901
aF1.8475991419171338
aF0.6503148130489684
aF40.038849671056454
aF1.4494311574791319
aF0.8054589712469012
aa(lp185
F91.20233394610148
aF4.509548369246492
aF1.9828099279853832
aF0.42030758807898305
aF0.3684249876693291
aF0.5332869497460078
aa(lp186
F98.88729363788886
aF4.401967747744656
aF0.841995639753498
aF17.187750688109695
aF2.503347577561956
aF0.7875783185997607
aa(lp187
F66.10249821088844
aF1.889395215770986
aF0.9482219360729932
aF32.75656682652269
aF1.7627583925635992
aF1.7791791919178672
aa(lp188
F36.19831245254742
aF3.6064791098075757
aF2.679059244605506
aF33.961050558540265
aF0.31278391611723355
aF2.922020281763202
aa(lp189
F16.254433743398767
aF1.031438061626349
aF0.4642859447997202
aF79.07412532942617
aF4.180968303403586
aF2.5450870735078315
aa(lp190
F37.43291282746889
aF0.5532672311324371
aF1.251361617211334
aF74.5216815799291
aF1.9301549670018932
aF2.305727146837713
aa(lp191
F3.736930304671582
aF0.05175470251195913
aF2.593611467086676
aF79.48122208793046
aF0.5762464281052632
aF1.7544319415780434
aa(lp192
F72.81321421328606
aF1.4901774770308085
aF2.51823425225197
aF70.85112030101044
aF2.7371413813306305
aF2.362781414764717
aa(lp193
F94.64327521086041
aF0.8543667320077947
aF1.5241838816825837
aF29.0813576356844
aF2.797694313826034
aF2.2600873045474605
aa(lp194
F32.42820002361321
aF1.8004112259826788
aF0.48450924861767597
aF86.80594270292632
aF1.9853795474146492
aF1.1618981523149123
aa(lp195
F66.19532893074111
aF3.1980583792834985
aF1.2780043556702898
aF42.40427758124188
aF3.5280176526225433
aF2.493258027673828
aa(lp196
F53.83280066959569
aF1.0482878756615506
aF1.8275057208734762
aF45.5198474125608
aF2.4318616225670393
aF2.7281214837050194
aa(lp197
F14.770188316369659
aF0.9057932078835057
aF2.9548902834189015
aF45.465717610697666
aF0.8416737740458935
aF1.6825957391243924
aa(lp198
F69.32910801728073
aF4.872714839694192
aF0.22624224920639113
aF21.15691840133753
aF4.99048118419395
aF1.1567889453579494
aa(lp199
F72.82433898331335
aF1.8559213339688645
aF2.6717989566165907
aF36.024930948150605
aF3.8514127364157638
aF2.4167796853853156
aa(lp200
F15.330214809395748
aF0.9868812204723909
aF0.7687723515282495
aF63.37853050918759
aF4.797390219856477
aF2.6235536921967704
aa(lp201
F99.1335428797157
aF1.6052695240160242
aF0.5241987729791323
aF57.67029254521036
aF3.9810815863609736
aF1.051993993464687
aa(lp202
F41.00888895463617
aF4.168833215060826
aF2.820980492841069
aF70.39383391340053
aF4.598205974402255
aF0.36631150381375455
aa(lp203
F41.91439114574948
aF0.9957110293295024
aF0.642760336130436
aF29.244772451356702
aF2.2098149397943567
aF1.5268233238312052
aa(lp204
F25.437868502337512
aF1.6472993829419895
aF1.4414143704426476
aF73.41441263971322
aF0.030337343367746183
aF1.5833323896568028
aa(lp205
F23.584550326502264
aF3.5666717534992682
aF0.2504069808511292
aF7.550239851776919
aF1.8689546804094015
aF2.8147966845970727
aa(lp206
F75.25534072565796
aF0.042668614565423146
aF2.4994342228654185
aF17.738446321855083
aF2.161462735510243
aF2.0369599699390903
aa(lp207
F7.429422615871162
aF0.5001557922804251
aF0.6005054213998599
aF7.038258157926913
aF4.990767890845309
aF2.7766309663244737
aa(lp208
F25.572087771124373
aF2.989702693825527
aF0.651117214004632
aF4.881779483139159
aF2.352261144502278
aF2.020997522205292
aa(lp209
F5.292257838399339
aF0.133092159796232
aF0.33549857495078206
aF19.373092439086115
aF2.623770295486808
aF1.9897753368012951
aa(lp210
F28.85168097817753
aF0.23338551347565573
aF2.933747013256079
aF8.610676142973329
aF3.1264303837361744
aF0.6391552009348543
aa(lp211
F92.84261593172852
aF0.1469033390573965
aF2.1873004930814908
aF63.59436691386976
aF0.2672462388148855
aF1.1789823646216728
aa(lp212
F61.4085129664324
aF2.8515514075241755
aF0.8745437557724866
aF32.992838192432686
aF1.6863180623139118
aF2.4804685267061166
aa(lp213
F4.355882572983938
aF2.1637298391269155
aF1.0129719458951159
aF83.74396955200444
aF4.28009872412972
aF0.7413252915433622
aa(lp214
F82.32595930396015
aF2.9226016985464085
aF2.0365263940610587
aF12.88636864138798
aF4.806714045908108
aF2.3405812936712853
aa(lp215
F80.81218150974317
aF3.526040324707467
aF2.0084923885860255
aF98.00727556219341
aF2.1810538487997504
aF1.1791676092475918
aa(lp216
F7.608685962756024
aF2.2784981117817082
aF1.3992258298582305
aF46.64771121974665
aF0.18540049046584628
aF2.54144039716023
aa(lp217
F48.26778901818278
aF1.32614601338132
aF1.1362168087294238
aF99.90199850222535
aF2.50386506401098
aF0.8638467486856714
aa(lp218
F47.3444471412441
aF3.672597643405579
aF2.6306606406212456
aF10.718497947609308
aF4.401331030931418
aF2.340057819345396
aa(lp219
F59.52806130297365
aF1.1183024587431767
aF0.4006067749922334
aF8.29423748114303
aF4.684005141526598
aF2.070810915988645
aa(lp220
F29.857014810001793
aF4.011027951914175
aF2.7758268804828785
aF35.41353722369052
aF2.908809037705447
aF2.3711695545683558
aa(lp221
F98.77945006371043
aF2.481508848868361
aF1.7725494910216337
aF94.85442837184672
aF4.0272961554333495
aF2.21383590846885
aa(lp222
F79.68296125913974
aF4.260460486318106
aF0.7727545936582823
aF74.19708183125351
aF1.8455163686673792
aF0.7232538705861252
aa(lp223
F43.96930651208214
aF3.096025116520951
aF1.6857960612734284
aF63.51951159624627
aF1.2881131071556577
aF2.5247193879116407
aa(lp224
F28.780154056865836
aF2.6852722568272798
aF0.9021969630022619
aF69.13072170224852
aF4.699622063443219
aF0.707949994616007
aa(lp225
F43.55067601897099
aF3.30874458018865
aF2.2591428564668323
aF39.7661054346562
aF4.679323781146604
aF2.5817383295560887
aa(lp226
F39.151766922746155
aF1.8949808524914236
aF1.6834476010918074
aF63.50590733981812
aF4.194963693292561
aF0.04358751482513756
aa(lp227
F89.90313807535576
aF1.0566944320566307
aF0.9027643680121049
aF42.50196012459945
aF0.8848429292624349
aF1.9338870634305318
aa(lp228
F81.63731672479354
aF1.8012416422626938
aF0.38884106547442476
aF54.93333813638939
aF2.296368927968473
aF0.9246885633113506
aa(lp229
F70.02495233756049
aF3.132663883139663
aF2.4469439754850497
aF78.50692721653637
aF0.11346534135764696
aF2.1831738337051516
aa(lp230
F94.75915798920313
aF4.012007728562406
aF1.391554940225035
aF88.99351451517958
aF3.6307330648964387
aF2.603872232946514
aa(lp231
F68.35283705533595
aF3.836536769963507
aF1.8537655176866064
aF97.34772920200474
aF4.4255127066683775
aF0.8306633351298961
aa(lp232
F61.73235052526187
aF3.0412079764345723
aF1.773814038866285
aF22.766779306004814
aF0.5642784422342473
aF1.7272465454632333
aa(lp233
F50.737042299663415
aF1.367997229900072
aF0.8779260907041314
aF26.47168819158834
aF2.0652875740836834
aF2.6796814815564844
aa(lp234
F89.91762218246723
aF0.06648117144420207
aF1.5334770414599843
aF43.82958208586507
aF1.3352136038787643
aF2.005461617907111
aa(lp235
F9.327974773512604
aF0.504938902768387
aF1.767735842685462
aF13.303342937598284
aF4.05721474187272
aF0.5712623451999853
aa(lp236
F10.026469309408048
aF3.0560870845029586
aF0.9702553815955096
aF22.435050023442916
aF2.701375034821421
aF0.8125650372800346
aa(lp237
F15.779104611048977
aF4.75841698718408
aF2.7703559093837633
aF3.694147092845579
aF4.382921091768098
aF2.826495499157363
aa(lp238
F59.66005581244278
aF3.862463365647918
aF0.5655929258036599
aF47.84627525314398
aF0.947443542995996
aF2.744619628881753
aa(lp239
F88.33313993062804
aF1.936394499743039
aF1.0583549829005827
aF24.691655945689007
aF0.19646818072411698
aF1.844988946737507
aa(lp240
F26.27274040380242
aF2.0134228857469276
aF0.07750013134448874
aF96.28159413521949
aF1.6252214767883055
aF0.9204030858914709
aa(lp241
F8.52651010264659
aF2.96220015057947
aF0.5095413297950205
aF50.41054257629812
aF1.6404974396008836
aF0.6867718038983714
aa(lp242
F79.01819491953093
aF4.135888872053525
aF0.8597015721356885
aF13.52029050345065
aF0.23192721254612803
aF2.841481791363909
aa(lp243
F12.15576134469767
aF0.8184524658478864
aF0.6394802937813853
aF50.00510250099796
aF2.465978532981003
aF0.6755914218889867
aa(lp244
F93.06852985296591
aF0.7521771773986485
aF1.7792524587875609
aF41.4100400051062
aF0.8008914119230498
aF1.6547415029664627
aa(lp245
F83.12481352880405
aF1.8091266885389183
aF2.30284655991431
aF82.00835160542113
aF4.905717917467221
aF0.2759580513622705
aa(lp246
F16.644567715847902
aF1.045990877859781
aF2.8470218155276763
aF66.89373725883141
aF2.8961730522116236
aF0.07449578659577194
aa(lp247
F63.5598124906387
aF3.779875996183375
aF1.30263475168442
aF61.33684404544171
aF0.2732256911331471
aF2.8460136966838996
aa(lp248
F83.72799986026465
aF0.06728233182304477
aF0.6503261666866721
aF98.63931923843478
aF4.355539251499152
aF1.333924575441508
aa(lp249
F1.9067193777225877
aF3.7666458498432314
aF1.0665771675087108
aF75.89070720894448
aF1.6420351282762118
aF2.977239497448425
aa(lp250
F93.73576670940412
aF2.561823166173413
aF1.8051601618651616
aF65.19367854551726
aF2.1783665817168805
aF0.7192596757417176
aa(lp251
F79.10237143185898
aF1.8096911851508202
aF0.1646284593371241
aF19.380612692519662
aF4.106407106987096
aF0.5596916474605682
aa(lp252
F29.910868213487664
aF4.247618045307441
aF2.5166034730252553
aF51.06708884763217
aF1.7603023538478824
aF1.396775637889339
aa(lp253
F27.087511428069345
aF0.6263974538639466
aF0.610035942254128
aF36.237164452902626
aF3.6555371886309604
aF2.7915716440935245
aa(lp254
F27.353037959294845
aF1.6227806369764513
aF1.417778982677416
aF58.30650096395067
aF4.639335258820091
aF1.165148905544216
aa(lp255
F90.87870295665505
aF3.0187656531901705
aF2.0769261356067754
aF86.53584305621305
aF3.857396504005128
aF0.6303976435620094
aa(lp256
F90.41091257453004
aF1.0089788927155319
aF1.4095698053390433
aF47.49129617420853
aF1.4472387990753388
aF1.8195048050092715
aa(lp257
F33.80074953661549
aF3.966403384894509
aF1.88231115488863
aF51.243339374275735
aF1.9889480502458738
aF2.968423281164776
aa(lp258
F98.58656795192769
aF1.1461536978104032
aF0.623580778301626
aF83.40483953610719
aF1.450798279758141
aF0.5501147993650128
aa(lp259
F76.46846538110955
aF3.616373361116016
aF0.7210628074495634
aF22.341922682667793
aF0.3499636852686455
aF2.114700610195096
aa(lp260
F45.748983780933514
aF1.2837618949025453
aF2.4809074579415547
aF85.98457207797695
aF0.13758335857646742
aF0.3832863379699518
aa(lp261
F46.262351829521776
aF1.4385738923792801
aF1.693713737737463
aF18.080594416191907
aF3.7023647079504323
aF0.4525084302170116
aa(lp262
F7.556015345556588
aF0.9786661159716575
aF0.06175440785037156
aF99.41529938962496
aF2.656141362680659
aF1.1520534828107896
aa(lp263
F49.865926807257225
aF2.5963035372619228
aF1.73097419478011
aF59.84562049076379
aF3.5663379484601556
aF0.06856514898611599
aa(lp264
F76.42790845276735
aF3.0577403084480173
aF2.7989211813699857
aF72.05964578849061
aF2.955048147997317
aF0.8402430110318798
aa(lp265
F38.299532927206904
aF3.320404876788947
aF1.2651130137108755
aF17.915286055876567
aF4.206656956843828
aF0.5259320909429797
aa(lp266
F41.776633385267026
aF2.1128013511361705
aF0.8238869552178324
aF82.36628339309917
aF4.137443401868125
aF1.3132225733631306
aa(lp267
F71.128764152716
aF2.310241745303298
aF1.5754686059334357
aF37.64933601356225
aF3.371009810840963
aF0.7631323483042671
aa(lp268
F86.87468129588686
aF2.6013774159231295
aF2.380649148807762
aF68.14155107079618
aF4.408713455541364
aF0.8155177379573011
aa(lp269
F6.087623612474379
aF2.613369379184421
aF1.5243751777414083
aF87.3158167718045
aF0.22762084154222373
aF0.008844360008411267
aa(lp270
F48.86550747495632
aF3.616216173378234
aF2.123416930774697
aF77.04651445329533
aF4.021525808972779
aF1.3105038755804161
aa(lp271
F81.30440993597307
aF2.350641913865794
aF2.00420511896174
aF61.20870177947385
aF4.743284914774789
aF0.3436902987527699
aa(lp272
F88.8776983393055
aF2.2789632044867765
aF2.938632195685144
aF93.00939044833065
aF2.7059853181715576
aF2.9059124785493
aa(lp273
F91.77876274524066
aF3.389843472471048
aF0.39746242734681614
aF99.9700362599564
aF3.7752053301829065
aF0.2862549042813505
aa(lp274
F56.95272906701163
aF1.8197899149814472
aF2.9237649543237016
aF27.666653598868162
aF0.7176360615407607
aF1.1799236471464547
aa(lp275
F89.39595355070225
aF0.3025215142432375
aF1.620253990026455
aF7.152636557385039
aF2.393069164444137
aF0.11553200141026065
aa(lp276
F37.15457717346759
aF0.47993539903234017
aF2.478587984862399
aF36.50021708191146
aF1.2888634904996754
aF2.754823561910657
aa(lp277
F29.842418773944058
aF4.465625599712267
aF1.471515768232732
aF43.89377032945647
aF0.9438953817714096
aF2.4899313130425993
aa(lp278
F32.000754370239484
aF0.9382492852423036
aF0.07859251499356534
aF77.479925889698
aF4.962288084799398
aF2.9658110795968473
aa(lp279
F17.550659007340887
aF0.48449516772924694
aF1.3663589825542082
aF4.791383241022129
aF0.9857524095982323
aF1.613701188239461
aa(lp280
F61.35081066790594
aF2.532635069718751
aF0.667191543278947
aF29.365436565444202
aF2.0235823651245006
aF0.17250268032216987
aa(lp281
F53.37789836286294
aF4.38885181419834
aF1.8305775572034535
aF59.28094193705291
aF3.2279670556744717
aF2.7664508433149377
aa(lp282
F36.398736848857624
aF4.51106572872798
aF0.9348307656760364
aF6.002488279045304
aF2.600479905940678
aF1.2230921814489013
aa(lp283
F0.37137713284668417
aF4.400331793938697
aF2.958516791949381
aF16.418453926948086
aF1.112511968549399
aF1.332087752042436
aa(lp284
F78.66705837046723
aF4.281834684747344
aF1.807954014012137
aF74.07622586637186
aF0.8495601485753257
aF2.7486200432110564
aa(lp285
F80.29471475660603
aF1.8536073362341832
aF0.6232077456738726
aF80.72763046750397
aF0.06404061575351283
aF1.8618694620262701
aa(lp286
F16.330474692165666
aF0.11229516919471993
aF0.9111068089381589
aF42.143486038683534
aF2.800135113915389
aF2.453413747792008
aa(lp287
F29.009650628547845
aF4.6639410931314345
aF1.732420835053452
aF78.82978410145108
aF2.6295825215066673
aF1.524794996689132
aa(lp288
F28.220522158517227
aF1.2396985847181718
aF0.3447096011902465
aF12.174169784497135
aF2.8107825171254386
aF1.643086046020167
aa(lp289
F64.65559197612481
aF4.704815244738439
aF1.3239219828229505
aF43.16523535034289
aF0.12056778319765427
aF1.8710132267347395
aa(lp290
F88.16132422918909
aF1.2925405802357974
aF2.532179503245078
aF73.89853495825665
aF0.35310503749716504
aF0.5631516034161325
aa(lp291
F35.62488774482262
aF2.9523933742937274
aF1.08698258485173
aF61.722111750065565
aF0.19278063130404754
aF0.9522265743868764
aa(lp292
F14.260081974280913
aF0.06320436241510852
aF0.35581767443924595
aF45.35962569031814
aF1.8434845343131685
aF1.705198849186873
aa(lp293
F65.10252905968488
aF3.276996587384398
aF2.7067896677177776
aF35.03210856215958
aF3.45232613172394
aF2.5563804325406485
aa(lp294
F69.87524537254399
aF3.0677769663539944
aF0.14067643878370917
aF62.25620006468342
aF4.156530937062763
aF2.0155704565008445
aa(lp295
F33.31502318964691
aF3.0252219704582832
aF0.4673087986690049
aF69.62867064091947
aF2.7664662210667923
aF0.3030616571980198
aa(lp296
F16.079138324340757
aF0.5616741676398951
aF2.1931148296309533
aF63.8642394834721
aF4.574754971718956
aF0.6454894852800478
aa(lp297
F61.61972341670568
aF3.5073573337189163
aF1.9002465788304277
aF48.865505973844414
aF2.519210678968902
aF0.2858322522897434
aa(lp298
F36.77608541977276
aF3.5823093989756556
aF0.7101244213358323
aF56.525106586176456
aF1.2608029936871064
aF0.651720977343139
aa(lp299
F89.16548637879097
aF1.2781529921459278
aF0.3810810585189144
aF73.76930098742905
aF4.689619458097568
aF2.015711344174646
aa(lp300
F26.5790790633617
aF2.37272326316879
aF2.972094411470807
aF8.123070031176315
aF4.9194496904392615
aF0.609390207187415
aa(lp301
F36.63277278566651
aF4.630165716654458
aF2.2300050969647556
aF4.295205981293682
aF1.693757223591844
aF1.7079242258149878
aa(lp302
F64.7119208301337
aF1.6479618072158502
aF1.3206914207988314
aF36.979382138837366
aF3.9281543904042144
aF2.9519611222369346
aa(lp303
F84.8248457948775
aF1.50746203546404
aF0.9687056280641363
aF74.01870245421017
aF3.8842673674010375
aF1.4621920782427624
aa(lp304
F22.896419552385304
aF2.8845186302034875
aF2.8536496687132376
aF19.443102642809695
aF1.244282477330022
aF1.9841623865702078
aa(lp305
F6.261377856428341
aF4.172948203045524
aF1.294816531093586
aF32.04220532094576
aF4.245626170748171
aF2.8432961983132725
aa(lp306
F55.719754530515
aF3.213066011253765
aF1.2838251783726795
aF2.789567705544671
aF1.616117959438847
aF0.6384577414843129
aa(lp307
F92.44783965645045
aF1.4305207937298352
aF1.5756090705524328
aF87.74764740186407
aF1.9247688547042263
aF1.807429103397997
aa(lp308
F31.636587359354294
aF0.9775871470421732
aF2.1894724909077676
aF65.11428949594848
aF3.1838068397503196
aF1.2466294690478077
aa(lp309
F35.85554474725269
aF4.278164546231274
aF1.1839951528408226
aF91.76768724446153
aF1.780763624506525
aF0.6363868282507249
aa(lp310
F34.959901862779006
aF3.9236516524578358
aF2.3560732887858995
aF88.73140053316837
aF3.9474965961104793
aF2.770993930786342
aa(lp311
F46.55805532621152
aF3.746039911592269
aF2.9782854665065095
aF61.23836273419836
aF0.30411256509989826
aF2.6385222514982027
aa(lp312
F95.58682921704823
aF4.329366983309706
aF1.2700678976062476
aF6.899392061281684
aF0.6313409794941205
aF1.1081387203801
aa(lp313
F86.06928429317227
aF1.487734995588268
aF2.8267813538967532
aF82.15990220899243
aF4.37327404264631
aF2.1940235903960517
aa(lp314
F19.11250109424317
aF1.95520734158438
aF1.4175504111372126
aF1.2371633370079405
aF0.8010718146385376
aF1.2270977090924786
aa(lp315
F44.44424907400114
aF0.47920687072353696
aF0.47739892661008176
aF0.6625941347129349
aF4.395177155285861
aF1.783872740732912
aa(lp316
F32.430216441510915
aF2.686438705757124
aF2.7926295314326985
aF17.74936538249312
aF0.21905654295964638
aF2.802795176771615
aa(lp317
F44.059703274184045
aF2.3910620825117372
aF2.5664742023646867
aF78.67090266300464
aF1.5611820214316925
aF1.4546800799738238
aa(lp318
F11.369623932807581
aF0.5977924777455385
aF1.1087700995532694
aF78.44349089283688
aF2.2738719040454383
aF2.633440320498169
aa(lp319
F73.52858005530263
aF1.6545812507961672
aF2.6600927913639496
aF25.81765290697429
aF3.6134049272000794
aF2.544453888230472
aa(lp320
F78.0476123849505
aF0.9453221620197799
aF2.5164974285051813
aF11.841860183417518
aF4.418973540819367
aF1.821551154153613
aa(lp321
F63.786348194222434
aF0.44183233570115776
aF1.3141824330933445
aF87.29236075309558
aF1.9639886076183495
aF2.617550262475032
aa(lp322
F42.64053873366912
aF0.4030314829467285
aF0.4262644978631973
aF47.37973372835601
aF1.541037313612827
aF0.6499364854304522
aa(lp323
F20.23106033258909
aF3.158135866411321
aF1.2323993627882441
aF80.68549994099101
aF1.6633563840756294
aF2.3082148877589534
aa(lp324
F70.10192969097706
aF1.9278578165363414
aF1.3924163364741007
aF62.09711794127395
aF1.9641975623177461
aF2.253385186614591
aa(lp325
F12.559768272673255
aF4.218817494761468
aF2.894763113987743
aF17.079476146461104
aF4.62570494649204
aF1.1232316637241784
aa(lp326
F88.14461591260651
aF3.6706454405192024
aF2.653480178484914
aF55.53857198465722
aF1.8268858008769862
aF2.228406554855719
aa(lp327
F62.38008408436204
aF4.642246801359475
aF1.1850869362885845
aF0.7925352841919975
aF0.1537585670351821
aF1.3796663134835194
aa(lp328
F2.5063914649067542
aF4.2912046720340635
aF0.6521381647307112
aF76.71044936680215
aF0.17942310900328828
aF1.0641246774891808
aa(lp329
F65.62056382106337
aF3.2893730009239874
aF2.2376475017186284
aF97.07612616993032
aF4.397249640869089
aF1.9897363903539218
aa(lp330
F34.56807617238734
aF3.6390389109754064
aF1.3965292175348403
aF68.0828971858219
aF1.1662562384406145
aF1.3326079778676352
aa(lp331
F69.48156628582272
aF2.5169522821775403
aF0.15496386163926834
aF21.427162995164107
aF4.493362552476451
aF2.3072242899696045
aa(lp332
F34.649015215990616
aF4.2016756235062465
aF2.8195002441512806
aF36.033181645210064
aF2.660528236475211
aF0.18617931597408977
aa(lp333
F72.051826488342
aF4.3211295016492555
aF1.6028988464884288
aF65.72707757321258
aF4.476568903224976
aF0.6644021094232189
aa(lp334
F8.883629159777751
aF2.8833720562248017
aF1.0497471232161388
aF64.68018708318007
aF3.3013412464006624
aF2.1219372053613483
aa(lp335
F41.996445689224245
aF1.980188344981545
aF1.5332654741591467
aF55.66080284424023
aF3.3815736635308635
aF1.6425403542351176
aa(lp336
F90.8129490451987
aF2.0862967609290965
aF1.5738184992981692
aF94.2974024463168
aF1.7760535982540877
aF2.7825607457900254
aa(lp337
F79.75998341106285
aF2.50999987715615
aF1.7824961766157128
aF8.663927239245183
aF2.295141336804478
aF2.9521407463329554
aa(lp338
F48.22664028781002
aF2.600761256875614
aF1.3952761492055208
aF29.495880530109908
aF1.1894963556850442
aF1.911351726670365
aa(lp339
F28.25430448184816
aF1.9502228968141933
aF2.911060013076443
aF59.53057229571864
aF1.7382291321808636
aF1.466252223028583
aa(lp340
F58.1119496264273
aF4.769415563559935
aF0.9596485179422204
aF81.49547576042501
aF0.9755777466837839
aF1.2577185540533202
aa(lp341
F14.508769546764032
aF0.001982906364770831
aF1.7393323047725273
aF80.55786631475533
aF0.5466202129725789
aF1.9265632755869957
aa(lp342
F80.51481673990557
aF2.7061126237293918
aF0.987115203744833
aF33.23606812820632
aF3.3817432761484416
aF1.8302808755079072
aa(lp343
F83.83573474117841
aF4.284651086874371
aF2.1061113909769267
aF41.81933969990326
aF0.2138297128414529
aF2.3053198084035613
aa(lp344
F27.76641060803743
aF0.6947036993789435
aF1.5395200614739004
aF45.15312597537169
aF2.8633907800698246
aF2.210719133957716
aa(lp345
F87.71159780691448
aF2.9328123882287476
aF2.3412096641001003
aF48.56454621251854
aF0.5132645497494143
aF1.011845325312563
aa(lp346
F47.46020124167457
aF3.6399269592730916
aF2.6458608184583055
aF43.243943067288185
aF2.067497397463356
aF1.828659672021514
aa(lp347
F16.88474779570668
aF3.16831733236371
aF1.6661797940771077
aF11.278161897241834
aF3.3968769807093886
aF2.0323647946947054
aa(lp348
F98.07772322346237
aF3.5962278581866784
aF1.7191674282530243
aF50.96913517078848
aF1.6992744444703551
aF1.7847404493068866
aa(lp349
F97.91334646516457
aF0.6128747806195817
aF0.2873358415695523
aF39.63210061029392
aF3.8969713478479777
aF2.0577095407401362
aa(lp350
F13.485054330454904
aF0.02220324651393435
aF1.9026709867758018
aF28.680621541838057
aF4.361401848278918
aF1.756058755651622
aa(lp351
F96.57136674411495
aF0.9434599605573379
aF0.7890479626343239
aF13.659009259395239
aF1.5461599995465254
aF0.5370569312923159
aa(lp352
F45.24715940926629
aF3.332657063974448
aF2.299106358846605
aF12.412920104196367
aF2.3539772803974617
aF0.2285401872867019
aa(lp353
F83.67496917001942
aF1.8971154252880034
aF0.724355551032261
aF73.38672453473438
aF4.155019080419287
aF2.2669359272470606
aa(lp354
F64.19355941271523
aF3.355193125396086
aF0.441970816270026
aF83.72574610654743
aF1.7787558236324101
aF2.10217416069388
aa(lp355
F86.91633695341609
aF4.603092674944721
aF2.2146839453980425
aF4.850730356608257
aF4.7853079897672615
aF1.8748169307561993
aa(lp356
F59.046305111577894
aF1.0958063567027994
aF2.8107472950502164
aF91.23896337546591
aF3.8535863820168297
aF0.9106980590552474
aa(lp357
F6.695776929517994
aF2.4847024286673767
aF0.6336516297327349
aF60.298016500944705
aF1.444469804283382
aF0.6286644839954241
aa(lp358
F80.84446953374082
aF2.820781600052171
aF2.376910509221228
aF83.00468664275316
aF4.787590703613335
aF0.27382176142654924
aa(lp359
F93.46682376257236
aF0.3894427001309375
aF0.7812204728746281
aF30.069776691233074
aF2.7247692868817164
aF1.2697465459490003
aa(lp360
F35.32276856108957
aF3.8559278986200245
aF2.443761003841377
aF69.17965493166189
aF2.5849623038303897
aF0.1535711226720492
aa(lp361
F7.171606727423496
aF3.9692985728392154
aF0.5100778982537136
aF71.13980030316115
aF4.252734397944611
aF2.3830225366564033
aa(lp362
F26.533476381039435
aF2.9306162517729217
aF0.18714846571156007
aF42.49121832861229
aF4.353808286578685
aF0.6707135354305411
aa(lp363
F82.1435174672705
aF0.04336043271528478
aF2.808232459751371
aF13.050422344503254
aF4.3416346824022085
aF2.0351811262156057
aa(lp364
F80.13993883651193
aF1.7144055869228954
aF2.82565710126348
aF93.9742870485248
aF0.8924235264473074
aF1.0740556073296699
aa(lp365
F46.57184719490171
aF1.9148586644837566
aF2.7138793917962243
aF9.805525406861271
aF3.089688103821406
aF1.4923090692363687
aa(lp366
F49.87096635283622
aF3.9223307082927588
aF2.5553765181035843
aF43.56123806271333
aF4.564853737503482
aF1.3319632476297554
aa(lp367
F16.60474847805472
aF4.994725377078042
aF0.6514838847820378
aF59.163436785504445
aF2.74980718770139
aF2.8786251413119652
aa(lp368
F72.92876605944154
aF2.9508680320459986
aF2.0625829208906956
aF5.60038512285983
aF2.383233388060689
aF2.2588849040152805
aa(lp369
F26.923418098742246
aF1.8267518461630954
aF2.707376601325775
aF0.8420455708531449
aF4.004922862088592
aF1.562772422858273
aa(lp370
F22.810709313123812
aF0.36040132934455793
aF2.1938779518930476
aF45.67718429768115
aF0.3302465017102968
aF2.1874376724116398
aa(lp371
F82.30182272984116
aF2.5187826580220674
aF0.48628059020372116
aF6.661049479727533
aF4.7667169184604665
aF1.428565142431855
aa(lp372
F41.54280278620918
aF1.4663409565237133
aF1.7770987097868933
aF94.34697187779693
aF1.9010626384447877
aF0.9984597744040461
aa(lp373
F18.74475960355204
aF0.40262989040377895
aF2.1838305687294595
aF23.011106942749425
aF2.61627277121152
aF1.2125707389166493
aa(lp374
F9.775650950964089
aF4.534450787033016
aF0.10329676326951565
aF49.90880088505191
aF0.5502763523182619
aF2.0916576712023875
aa(lp375
F74.47640353320114
aF2.5121384296491476
aF2.7090795160796075
aF6.075875531718788
aF0.7946488364386345
aF0.42862147227748715
aa(lp376
F56.71825323567749
aF4.499833897443623
aF1.1939422782036584
aF21.656072522154936
aF4.540896648487628
aF2.7970560702889804
aa(lp377
F36.225486819947015
aF3.408080668346281
aF0.9580456597363269
aF67.0297644999845
aF3.200721532653362
aF2.583505134970223
aa(lp378
F29.221402397144114
aF2.5745219884340553
aF2.352182270546515
aF58.117508940430454
aF3.997521473591887
aF0.7137009183297436
aa(lp379
F30.280271676133452
aF2.069991942892604
aF2.4567526822541
aF61.93634571554525
aF3.4728888082546767
aF2.120297388839311
aa(lp380
F3.4375937315885063
aF3.108411388509891
aF1.2657377693942649
aF74.04057316191121
aF2.217763997831665
aF2.6654168220435555
aa(lp381
F86.10755835034041
aF4.743941713645977
aF1.690844018591786
aF7.108794310026045
aF1.2548447523330375
aF1.593824180843817
aa(lp382
F75.24762089819052
aF0.37531836688221576
aF0.44633380911234455
aF36.854188781678886
aF0.2363627857743411
aF0.2501666356778923
aa(lp383
F96.43969830857394
aF3.6168286197371815
aF1.7080852088277192
aF92.07169998465166
aF1.2014532395926008
aF0.014829092116621756
aa(lp384
F56.79534037863696
aF2.892048086532137
aF2.36558919288926
aF27.388432076789815
aF2.550747156939303
aF1.2130034691228733
aa(lp385
F4.247378896985832
aF4.125929872398089
aF1.136723164925432
aF71.6029079750035
aF4.996957812948327
aF2.0844931470987516
aa(lp386
F42.17952032756522
aF2.4438678749842815
aF0.07419928637082174
aF20.8152587948768
aF2.9426689804097967
aF0.2750718318967078
aa(lp387
F23.13087908462671
aF2.012661882941667
aF2.2141382214355003
aF93.4239019472409
aF0.10420577904817596
aF0.08847810784944188
aa(lp388
F60.1014702746099
aF3.2639652514061273
aF2.400392868283447
aF24.545977267975417
aF4.564708524663682
aF1.7225644202427837
aa(lp389
F69.59513750538628
aF2.6009306522099247
aF1.0740003584244284
aF39.06040111615193
aF0.12730652758756233
aF1.7363937863475005
aa(lp390
F48.84797241721519
aF2.634231495900334
aF1.6066412882835719
aF26.168812929325657
aF1.7480274553787174
aF2.4824182135970645
aa(lp391
F45.67955522699544
aF1.6033611261778502
aF2.0062916821687597
aF54.54634328761361
aF4.851760949311272
aF1.9171388613032017
aa(lp392
F72.35679854756403
aF2.375921530914461
aF0.7371342434962317
aF79.71869388110031
aF1.1806797028565907
aF2.9128997615756185
aa(lp393
F35.54142453697815
aF4.166445936932211
aF2.2244195240436255
aF67.76196866812089
aF3.7671390524180604
aF1.5623254627549716
aa(lp394
F59.40648709743548
aF2.4134293402839657
aF1.8091397674604957
aF34.290382658170884
aF4.466697259410758
aF0.5297238933600584
aa(lp395
F59.19906108335192
aF4.518828054867898
aF2.689929948059691
aF50.73458574947224
aF1.5683033446993706
aF1.3660752967324559
aa(lp396
F57.542883039008416
aF4.254804737944511
aF2.084854885230645
aF89.10106799475756
aF0.04116916585788555
aF1.4293183278864565
aa(lp397
F27.602439916055175
aF0.08042798839971832
aF1.2417263651986232
aF52.10924437032871
aF4.9924102670632005
aF0.5845060140939164
aa(lp398
F31.899076002146277
aF2.4964294571903367
aF1.22929722283539
aF81.20402293206367
aF4.553246139814736
aF0.1259864344290169
aa(lp399
F77.56035020957756
aF4.7274039454395576
aF0.003508627801519504
aF30.754027571432918
aF2.271255609280147
aF1.1820398361180053
aa(lp400
F54.29131074379326
aF0.6703405159161907
aF1.399269437784173
aF54.04386872908681
aF4.634966674550311
aF2.8921537127682075
aa(lp401
F12.504044828831528
aF2.0946349115745915
aF2.5783437028349985
aF8.152223586164741
aF1.9014228730921057
aF0.8258217035605897
aa(lp402
F33.828773535293
aF2.7337146168514135
aF0.14831908113787706
aF18.061220531489774
aF4.487719415350039
aF2.4105369096422042
aa(lp403
F76.97563685986141
aF0.7853946127263683
aF0.12635298286943453
aF67.77496428356109
aF4.518623090940478
aF0.605989984878647
aa(lp404
F15.828819458524922
aF4.14610340074775
aF1.033214343990596
aF86.63430949255367
aF4.5156701173599805
aF1.7415088212321488
aa(lp405
F34.4819045022423
aF1.4126947137975305
aF0.9303173917968911
aF46.569424893483934
aF2.1595860948333585
aF0.12306302864140717
aa(lp406
F1.6450958406119431
aF0.27174628724708383
aF0.6390914897778779
aF34.57457010619663
aF1.558197864334715
aF0.8032898130439471
aa(lp407
F1.833557569803057
aF4.76373618025562
aF1.8778201779763868
aF65.51389847017273
aF4.488278888309366
aF1.7775685215484969
aa(lp408
F87.73212152492277
aF2.1394308554299317
aF0.1670208086038436
aF85.40076454606903
aF2.7022923457082455
aF2.941556444032645
aa(lp409
F83.7662511610004
aF3.689325184832427
aF1.3277302738823726
aF35.78130009821109
aF0.02064536673429873
aF1.2130344113655613
aa(lp410
F65.0198223397166
aF1.6446384883520104
aF0.5140943763288196
aF62.13118912482499
aF0.28724161023613304
aF2.170972822271521
aa(lp411
F44.478370522520315
aF2.8041642540394482
aF0.9835774051239891
aF71.4077595392192
aF1.9137572152455273
aF1.9343481352966543
aa(lp412
F96.25801759247527
aF2.62134594685142
aF2.745977439948528
aF73.51244165305643
aF1.384284505266501
aF1.4737586576749826
aa(lp413
F16.572712234119148
aF3.5884115740026283
aF1.8552663734958839
aF95.06317823207432
aF4.119440351006139
aF1.267703962659533
aa(lp414
F21.400173067893157
aF3.2307756173185727
aF2.080363739343394
aF58.70441975223149
aF4.999932767576727
aF0.03617031169830531
aa(lp415
F0.57183649897673
aF2.5267074017333475
aF0.7618909294392362
aF4.518195169877859
aF3.2776453991513623
aF1.7783228812676302
aa(lp416
F94.36176600498882
aF2.7225971610851696
aF2.365404519335612
aF72.35683741099126
aF3.8617008750618673
aF0.4009078967797516
aa(lp417
F80.51473456254506
aF0.9308703487536174
aF0.9071582426183162
aF55.74151318913522
aF3.0908863565720313
aF2.7475587539979656
aa(lp418
F38.158608670811425
aF0.7008560510720219
aF0.8230762863489581
aF23.55195150480103
aF1.6920725938778725
aF2.8347248759371317
aa(lp419
F58.26270400459743
aF4.941555012017977
aF0.10571375237121083
aF54.86560704825152
aF1.2066018206361229
aF0.23055208012199724
aa(lp420
F31.326157725260394
aF0.07365443115970871
aF1.8269877165727721
aF90.33954887568689
aF4.039325275393718
aF1.5671782830215297
aa(lp421
F65.66754688102688
aF2.217337783314952
aF2.047273743483555
aF64.05142558096512
aF2.8705381437856174
aF1.8613655845302075
aa(lp422
F30.63602220156012
aF2.660581227993899
aF2.5857926368870943
aF52.73971495201582
aF0.9510181522066935
aF0.17316825097616195
aa(lp423
F61.91842129534007
aF1.024487649647377
aF1.9872028532520063
aF92.78574764905689
aF2.738314494080718
aF2.348082992660662
aa(lp424
F48.27869176997647
aF3.473713018942259
aF0.5488067626552043
aF11.05661464214026
aF1.0838748803151887
aF2.5788319555297337
aa(lp425
F40.04937520151886
aF3.182407191635603
aF2.9170973423666053
aF0.9506921518317779
aF3.624930632519467
aF1.2763979189617247
aa(lp426
F40.08100380404018
aF0.8139963205324791
aF0.40560531076794304
aF77.15034117415226
aF0.2578562752584562
aF1.6425459261622302
aa(lp427
F73.44963934738144
aF3.991286720662812
aF2.0782011688561433
aF81.75869993908745
aF3.4195270746601327
aF1.726063777439153
aa(lp428
F75.35722922813756
aF4.794073520165656
aF2.882592724789015
aF17.391401965977348
aF2.9163136342102987
aF1.401101988922819
aa(lp429
F80.7312818738039
aF3.1925458283105628
aF1.2680221548397874
aF69.89065329305028
aF0.011958961534684898
aF0.6782647986557194
aa(lp430
F30.398745590310995
aF3.3337644806785383
aF0.4020512815966458
aF3.7562696174600396
aF0.6907423930678014
aF1.8336799991762311
aa(lp431
F43.81097371485498
aF2.0635584788825097
aF2.0519797593015867
aF88.72205316123114
aF3.33448419067474
aF2.8785374392336536
aa(lp432
F50.11879556346172
aF2.8842189244803755
aF0.48564927797575974
aF40.92938914781805
aF4.325752763663592
aF1.4971304866827397
aa(lp433
F37.76627379248043
aF2.892870083329649
aF2.374688802729325
aF83.96966171787894
aF3.24271356967126
aF1.3961696384234545
aa(lp434
F73.24511458332117
aF0.9155359686092374
aF2.5838081581787042
aF51.91686265367282
aF4.161855872315254
aF2.8087298730572448
aa(lp435
F27.274262100552594
aF1.0507530077562621
aF0.13211415193812548
aF28.872215368103294
aF3.08551892339443
aF2.316245095834619
aa(lp436
F43.80796413171703
aF0.3888014818919361
aF2.4690127543541456
aF74.18794327063564
aF2.1273722740907863
aF1.1264371756912523
aa(lp437
F30.83537505889804
aF3.460138409259574
aF0.32277014601485876
aF69.70746033590801
aF3.8607575257530247
aF1.7594697844596578
aa(lp438
F23.342889552302026
aF1.7524237919845347
aF0.0450665614752872
aF5.314048441851183
aF2.38311355340043
aF2.892734346629049
aa(lp439
F97.26991222375878
aF1.9649696427131969
aF1.104584920099753
aF91.68091381923664
aF1.6625119739450445
aF2.4850130058640696
aa(lp440
F57.60226338429882
aF3.091987191068129
aF2.717139583657726
aF57.981850856653026
aF3.013632547256942
aF0.8016246120693442
aa(lp441
F38.3374771577852
aF2.49112179028605
aF2.662982224873671
aF16.68155047828578
aF3.1445981774430063
aF2.586697087788985
aa(lp442
F63.69511412334408
aF4.848384885324747
aF0.5147241381606972
aF97.98988483313028
aF1.5726399201532282
aF0.4840457164345989
aa(lp443
F84.2062393868661
aF3.2260627066937304
aF0.39694351154939544
aF82.68030184779957
aF0.7208780876138382
aF1.0462046641523217
aa(lp444
F9.755667977548377
aF4.365111358428292
aF2.4306728611295685
aF2.0046772605583407
aF4.370481047504746
aF2.6329206107805354
aa(lp445
F97.16263783899818
aF4.74354570903413
aF2.312310649070799
aF58.159122904135515
aF0.40482939878972
aF2.5667546215411248
aa(lp446
F53.42854268576872
aF0.6731482978907821
aF1.8923037488149763
aF26.608784093090797
aF1.7873357097118214
aF1.8473951970508562
aa(lp447
F66.32401332609511
aF1.3519512646293923
aF1.0075295882308706
aF30.605621123098103
aF3.806768119207071
aF0.9216460474879474
aa(lp448
F64.52268125511425
aF0.43223027182251683
aF0.33043890434904855
aF49.36512650352509
aF3.499084727040092
aF2.723064763710782
aa(lp449
F78.30022316342829
aF3.598330279467237
aF1.117847422469281
aF36.35097123122966
aF2.958903191729503
aF2.1339942940215226
aa(lp450
F43.99439549931543
aF3.022724497299571
aF0.4971840255645811
aF13.961812344789081
aF4.339307997540721
aF2.0210776647902478
aa(lp451
F15.698624662341754
aF2.0626322555847985
aF1.4751159214340248
aF86.3390392615737
aF3.5865513798599498
aF0.2254415108185397
aa(lp452
F20.73679335212766
aF2.0797690044087345
aF2.1422587702200704
aF79.47828448354339
aF2.3060386572784353
aF0.30703769528959557
aa(lp453
F60.855954799373215
aF3.25283909846023
aF1.4185913086729223
aF49.51192969502165
aF4.043829108058902
aF2.1731873544101146
aa(lp454
F96.71463118577412
aF4.016975290157533
aF2.1881590299780487
aF33.73310643858953
aF3.280963890299283
aF0.010121701872283784
aa(lp455
F81.0798644705008
aF3.0940078933413204
aF2.3807592324624274
aF49.75829441591474
aF2.1054554857279237
aF1.7807709796067344
aa(lp456
F81.6240159698748
aF0.665878233846724
aF2.742384380227952
aF71.32246585108388
aF4.620818029265483
aF1.0706464826166038
aa(lp457
F99.39774095081178
aF3.2793697457567603
aF1.6861971921488497
aF57.76275228619947
aF2.084760508506258
aF1.764172743819671
aa(lp458
F49.467362340615885
aF1.8358373859888792
aF1.4380150241226204
aF52.75008665688872
aF0.01478587732127834
aF0.9300399379871569
aa(lp459
F84.6768346172445
aF3.7646121052970756
aF0.4996816856081079
aF39.55373181145967
aF3.026653808931451
aF1.5262117164277784
aa(lp460
F57.64529662275374
aF3.403067860386752
aF0.6397950551292053
aF71.17344886448271
aF3.056735104073235
aF1.7310468761131275
aa(lp461
F32.24142432866959
aF3.286285503354256
aF2.9753719679662334
aF5.955053935720345
aF1.0033271897172924
aF0.4283847480042161
aa(lp462
F66.12479459958112
aF2.522405618182125
aF1.4974539750732985
aF0.2634595420012542
aF1.2119024371332614
aF2.9489429528872244
aa(lp463
F59.258749595769146
aF2.749936036256732
aF1.8784590292858732
aF33.45117706550441
aF2.6493444264062838
aF2.261615779095979
aa(lp464
F41.6738771711391
aF1.628222315169114
aF0.7442761774845027
aF97.6528386234061
aF3.960655511028265
aF1.7150233774657342
aa(lp465
F65.66392456985663
aF1.4426406630294157
aF2.5740381723008583
aF64.89546808539033
aF0.3224136643103659
aF1.4717695284752028
aa(lp466
F71.61124256539101
aF2.226468495387233
aF1.696591688421277
aF65.12319589425147
aF2.1371075500489685
aF1.445837082201729
aa(lp467
F77.48192240692174
aF4.023480694983008
aF2.9869622242048894
aF74.23694856182644
aF2.2982338926295753
aF2.101299415924982
aa(lp468
F69.9898250723456
aF1.8727843728112665
aF0.7148489849851594
aF57.83555130342262
aF4.138606525891478
aF0.786216929633243
aa(lp469
F83.61452324997575
aF4.6762728808153184
aF2.9119482538192423
aF24.4963028555119
aF1.8043205801517042
aF0.8775987489456069
aa(lp470
F42.89593245991071
aF0.5702582637321391
aF0.6227723201453577
aF39.141461317987236
aF2.7505083410187185
aF2.3068074415345574
aa(lp471
F75.16825034864515
aF3.1116859682242115
aF0.7080069573569935
aF67.08552026471897
aF3.318654448036309
aF2.521081504140998
aa(lp472
F23.34210768168853
aF3.7022104665291544
aF1.2085577326621562
aF78.36442377209526
aF1.3352055699309984
aF2.854632920332789
aa(lp473
F19.935739146908727
aF2.904018418941388
aF0.10721182908009363
aF94.1002710793778
aF2.9646636245015587
aF2.548843285072769
aa(lp474
F72.87647642457259
aF2.7019531235015815
aF2.6896426250443497
aF21.033946117920244
aF3.2879716512332546
aF0.10341269390458441
aa(lp475
F42.12347513012716
aF0.40878002515873146
aF1.0592081833064766
aF94.45831037888055
aF3.03095863515842
aF0.017806504828516534
aa(lp476
F71.40164539678347
aF3.433729078047347
aF1.9967712316870423
aF60.78184810153841
aF0.14378567265713738
aF2.148075572910248
aa(lp477
F99.37235933632901
aF3.7341946482556043
aF0.12523516748982644
aF21.23365592660248
aF2.3042361047357844
aF1.4857250752865627
aa(lp478
F4.321396830264524
aF1.1478827532821234
aF2.6772150888421398
aF65.69172805638281
aF0.4691284281937813
aF1.8653568509771707
aa(lp479
F29.49704728393018
aF1.9001144057741226
aF0.7766361205307275
aF25.715169122342317
aF3.059739748198666
aF2.0242203946723203
aa(lp480
F12.625771519442107
aF1.662636144319004
aF2.1321756948871657
aF83.77928945960599
aF1.286890100644957
aF1.0149157214736886
aa(lp481
F8.881074212333539
aF1.2234225025352847
aF0.8983768002694293
aF96.48402538542403
aF3.824955395003669
aF0.14324835518192813
aa(lp482
F52.40708774351267
aF1.8048241782988972
aF2.6953164165551247
aF57.06268601550556
aF4.090654351964821
aF0.07820434614402272
aa(lp483
F72.64816064726317
aF4.243356184602087
aF1.1956732859374648
aF14.5692593347444
aF2.8395786437871062
aF2.11628062538158
aa(lp484
F18.84649324743821
aF3.8161544996396204
aF2.96613472295769
aF42.658388997134125
aF1.9214361940858877
aF2.0988735573740156
aa(lp485
F33.21444256855979
aF4.644693237105668
aF0.2725694215549266
aF62.55601831695683
aF0.41243093157830313
aF1.4114450878702969
aa(lp486
F67.8587806342653
aF1.6980974260771575
aF2.6694785648338457
aF14.160727851015608
aF4.831991484154826
aF2.931870314061027
aa(lp487
F74.71470154707265
aF4.389200938529902
aF0.73179941028152
aF44.939322382960356
aF4.6030026078077855
aF1.747963666884761
aa(lp488
F78.63503191833506
aF3.6574391251682252
aF0.26931615193237224
aF16.61494495654091
aF3.997365787276692
aF0.9223464725304023
aa(lp489
F38.93372345243669
aF0.160939797795161
aF0.35149026337294165
aF78.96460195865095
aF4.679294209910597
aF1.417302129864242
aa(lp490
F13.754486936671817
aF4.6871668137091484
aF1.3427942504947685
aF33.71962597130418
aF0.12266291941955998
aF1.5763911842620026
aa(lp491
F31.59064388099101
aF0.18222146712718434
aF2.992403246076873
aF16.173285009929263
aF1.6438550095121567
aF0.43061006161542437
aa(lp492
F48.26801936999109
aF3.755442106914584
aF2.914728419949097
aF47.82829145039549
aF1.1255201475067067
aF0.644519479590484
aa(lp493
F58.294889471662756
aF4.381279850560166
aF0.28234762871523333
aF29.104762001515205
aF4.394173539942485
aF2.213245801003046
aa(lp494
F60.81299393580838
aF4.689288197934481
aF1.4444265259769937
aF67.43068477135733
aF1.5499056780808624
aF0.0071677984984029885
aa(lp495
F26.39054456429436
aF4.046695095645878
aF2.7891831364565736
aF84.81926189706512
aF2.9343095102660026
aF1.5840542075786879
aa(lp496
F62.91879847166052
aF0.3058065895929285
aF2.0947650203684316
aF59.02365598521895
aF4.32135765099125
aF1.8047599763153888
aa(lp497
F99.13184899702485
aF4.630931542637608
aF2.4665957845427187
aF41.04559401975671
aF2.6359164758465687
aF0.566183079660966
aa(lp498
F22.768403284845274
aF2.009089255094221
aF2.002670322815572
aF51.810611526790694
aF2.123211920580164
aF0.957164687864748
aa(lp499
F81.14512916751269
aF2.253941941607358
aF0.8277365242556777
aF97.62945441222483
aF3.913979632541939
aF2.8666771591066333
aa(lp500
F51.77630209584967
aF3.5890623892227675
aF2.2032207337737977
aF28.716688225359466
aF3.7648965992616708
aF0.09706980631583173
aa(lp501
F11.202371817818523
aF0.7169763997905937
aF1.2418943386468433
aF55.43612302422445
aF4.626266511897222
aF2.2786592838824395
aa(lp502
F47.70078152156263
aF0.6645498549878232
aF1.5132825227479216
aF0.9855380336503794
aF0.32407171719651795
aF2.7919546265885358
aa(lp503
F91.13099575376891
aF2.398184514708803
aF0.2127990527404644
aF81.29414585828903
aF3.500766241015751
aF2.919627445928346
aa(lp504
F99.0686576108926
aF1.548366858553611
aF0.934777559060111
aF48.025458762071985
aF0.592851614140143
aF0.22889626372132532
aa(lp505
F94.40901883821377
aF3.1727466028723823
aF0.36484346021223446
aF86.48341441363603
aF3.502145805605737
aF2.4065111309909546
aa(lp506
F55.46992251668069
aF4.459417621200267
aF1.2367059127221367
aF97.85888896739681
aF1.4410274509466774
aF0.9583418371065082
aa(lp507
F41.24409259476117
aF3.7530658887309825
aF2.1164273784865655
aF98.92041399741841
aF3.767226981438073
aF0.5350408070732698
aa(lp508
F24.705297726354058
aF0.5607653037441646
aF2.241711409010681
aF53.57593677877118
aF2.3569411583612587
aF1.8420576748545736
aa(lp509
F18.065742084677282
aF4.240956607815356
aF2.146924863209388
aF11.316527356200146
aF2.9674214609426697
aF0.04212204751429527
aa(lp510
F91.16241284963635
aF2.8003649855958916
aF1.173448898829537
aF61.092453968613
aF0.5519134406795112
aF0.292816518923269
aa(lp511
F2.7628363393628397
aF2.795047913834288
aF2.7188121699917405
aF60.42188254712101
aF1.826389833341329
aF0.21640718539012438
aa(lp512
F71.1802067969794
aF0.14026211179344383
aF1.7765116032009483
aF78.55958348789196
aF1.39131665070362
aF2.2323297632275976
aa(lp513
F65.73703265955135
aF1.122797851904579
aF1.6042719965357377
aF66.76068499430298
aF4.696793030133449
aF1.3841395465930355
aa(lp514
F55.34116037806619
aF2.642807023035267
aF0.03823877236085438
aF96.67356649958892
aF2.375825147269868
aF0.6614248533537295
aa(lp515
F39.46962611923753
aF1.8073812701577996
aF2.7461193317406414
aF10.677660182639048
aF4.805283759214532
aF2.4562593091886855
aa(lp516
F88.06533983166268
aF4.485633860560581
aF2.1810331333742052
aF21.43541835353151
aF1.7967605726816167
aF2.3311167715682
aa(lp517
F45.19673521261971
aF3.760116854574985
aF1.050020385336294
aF75.85809776904125
aF1.1041409219422809
aF1.4010779054225446
aa(lp518
F89.83406233460691
aF3.2666095570535383
aF1.4083922249633056
aF63.45670035142717
aF3.304202595447983
aF1.271666577636779
aa(lp519
F49.75920658368391
aF4.261344241095016
aF0.6797196957498332
aF44.30233084070777
aF4.540194884275266
aF1.7590941503762698
aa(lp520
F16.667686812228734
aF3.2579074404843107
aF1.5270076939893233
aF37.8360180960396
aF0.011062856084890216
aF0.44730894507010566
aa(lp521
F78.39670692186101
aF2.4949373638384986
aF1.2041303403003218
aF95.61618963009126
aF2.6802484379123515
aF1.2287457365158416
aa(lp522
F58.81364521953296
aF2.0454307813003165
aF2.963410634527039
aF45.41800486398606
aF3.432247591728146
aF2.1616105262305463
aa(lp523
F88.5400578007493
aF4.793009789061627
aF1.1587813857969487
aF56.71190742758012
aF1.0010071810749248
aF2.2681288330866614
aa(lp524
F94.75629700893543
aF1.636335499051138
aF1.2878668440956813
aF58.420876216659764
aF2.6622473619738694
aF1.5864363299793607
aa(lp525
F87.55437071109887
aF1.0072301182780037
aF0.0874676870340847
aF91.90416650030221
aF3.0555994698728957
aF1.0958992166834516
aa(lp526
F10.80223195786595
aF2.454119870947608
aF1.6208441532002889
aF14.953176155777747
aF0.38893417633393046
aF1.2258864650909755
aa(lp527
F1.6908941911343622
aF0.1559577352895808
aF0.801501124233011
aF25.884603665847006
aF4.209000777972608
aF1.6428401412397797
aa(lp528
F0.7270520215805987
aF2.694976212503448
aF1.0103498276074914
aF35.50359205686734
aF3.8870260472438103
aF0.13706914851652496
aa(lp529
F49.523123498407095
aF4.28549903082582
aF0.23513132477303955
aF44.08603641559347
aF0.7066583322456471
aF1.8166013607114135
aa(lp530
F62.08279692491657
aF3.4204883434631563
aF0.7467348651175714
aF10.98873506438407
aF3.258924752912069
aF0.8977631666955942
aa(lp531
F37.98617787088339
aF1.1531345601628695
aF0.17165090686839746
aF35.00242961365237
aF3.269733145558803
aF1.468155600116136
aa(lp532
F58.657487748200374
aF1.1568066551914953
aF1.5857274994641513
aF80.4552776029006
aF1.2554726245651988
aF0.32302551108508815
aa(lp533
F50.047450291099715
aF1.1662764921578483
aF2.1066744200890595
aF3.387246530593213
aF1.809691699680251
aF0.14263324662317145
aa(lp534
F69.01380331382069
aF0.4652293824620113
aF0.3419790127028831
aF80.61422482981376
aF4.89830260030122
aF1.9900422747321977
aa(lp535
F69.56080797716912
aF4.584927487443114
aF0.6429786060486946
aF26.439982101475035
aF1.1055839531913547
aF2.0768527022633934
aa(lp536
F66.07269277067647
aF3.2979599394649557
aF0.833434886324531
aF42.524977795919604
aF2.577355328792337
aF1.8506074798459724
aa(lp537
F43.10359412128395
aF3.8111788458805744
aF1.3854134886229135
aF50.79726821848416
aF4.182259543659336
aF0.6338585987781237
aa(lp538
F56.01240838125242
aF3.187389559269417
aF1.137899397261012
aF7.867038279690841
aF4.7344421635724245
aF0.3271907319457362
aa(lp539
F86.81333430443875
aF0.43973928337459056
aF0.25721121606804265
aF0.4126310387437826
aF1.39571847526389
aF2.6276847058707284
aa(lp540
F27.357078220899446
aF3.9591572620729303
aF2.9298220624018927
aF25.601638533696125
aF1.2548139801380271
aF0.09376880627754025
aa(lp541
F11.845203306240071
aF3.8240076542961345
aF2.0006555861654785
aF89.82777039184572
aF4.346000534989778
aF1.573196794289446
aa(lp542
F31.918478137462625
aF3.8203784978937594
aF2.190970395702837
aF65.21510280048106
aF0.9465508018933388
aF2.789353917915352
aa(lp543
F60.974174118378855
aF4.578482265216719
aF1.3020948689833622
aF39.456559969491835
aF1.9005822710612748
aF0.2222058200668533
aa(lp544
F9.872163868139793
aF2.5808970954061157
aF2.483662819766868
aF78.02155628765736
aF3.353600774808574
aF1.168549970504806
aa(lp545
F50.47343890877115
aF1.0212598433156372
aF2.507797106184823
aF43.078000180503764
aF3.536767213644419
aF2.8515321610067343
aa(lp546
F68.56506330497795
aF4.896259299590664
aF1.093646884936439
aF69.3243717527015
aF0.14892124314103083
aF2.5326452622409263
aa(lp547
F91.92452507213777
aF3.9710677221607464
aF1.9533133090842034
aF92.34034004469068
aF0.009639269671733453
aF0.6973594663365058
aa(lp548
F10.424053592335113
aF0.32509342598343816
aF1.0129630297865604
aF19.71878754820291
aF1.9646061548029448
aF2.5500716003583817
aa(lp549
F20.359976568394455
aF3.89158528098907
aF2.367752609851097
aF52.27652744315794
aF4.496357326955069
aF1.9041399708463338
aa(lp550
F50.37925351082262
aF4.829149845711721
aF1.865653092809116
aF21.320202000428434
aF3.7392320102829264
aF1.7716902575311768
aa(lp551
F65.15248987069481
aF4.905145023476444
aF0.1790787643200904
aF68.93738683356558
aF3.2438020539485635
aF0.7044926210761551
aa(lp552
F85.184185476552
aF4.320246453293713
aF0.2199427130961401
aF13.444454142635454
aF4.65913468339981
aF1.0011358756743824
aa(lp553
F71.96596456864418
aF1.3528053126723738
aF1.5178959840391086
aF3.749262175870216
aF2.629825567869401
aF1.8886535234034696
aa(lp554
F90.6597250005685
aF1.172053531637729
aF0.1910307189272522
aF41.05883707203491
aF4.767023202494969
aF1.4804497145925068
aa(lp555
F97.0318218430265
aF2.1592593467693555
aF0.5797687681570985
aF15.592737642893283
aF1.4960460052271396
aF2.7211500649874694
aa(lp556
F22.567051451990494
aF2.4040234219152463
aF1.9703982727953577
aF90.09394755168202
aF4.8013341296631165
aF2.4205458865047182
aa(lp557
F21.963225636428916
aF0.4377041368288398
aF0.7472947413143837
aF54.194986308704976
aF0.6545873555926218
aF0.7662723892911186
aa(lp558
F44.100398809764364
aF0.7897437574314742
aF2.956093206978472
aF90.8957012582324
aF0.3065510941537669
aF0.905261146227727
aa(lp559
F62.95729166074404
aF3.5336394868016496
aF0.7762443770712022
aF9.127458678106548
aF0.4202262164917475
aF2.4059990969142073
aa(lp560
F54.70887826041242
aF4.400271627378536
aF1.2040815419032662
aF34.444662754609624
aF3.496828764674997
aF1.9720696672542495
aa(lp561
F4.204603141303275
aF2.896586311992466
aF1.1145783329944936
aF38.52191127982118
aF3.388417948167344
aF2.121142595718689
aa(lp562
F13.19411926735411
aF4.697657195090602
aF2.375288018073259
aF81.02902780645849
aF1.7396179341485611
aF0.9454878097719891
aa(lp563
F97.67990014936146
aF4.5555184428677356
aF1.7494005974668725
aF54.62301640026299
aF3.9679224273783897
aF1.9670065017050509
aa(lp564
F56.2576195974684
aF4.1075399400784685
aF2.270156449004535
aF87.33013105700302
aF3.981232643057961
aF0.09424591742013877
aa(lp565
F63.05547638022184
aF4.866093861794367
aF0.9467863766554928
aF46.9840518768035
aF4.651240049249031
aF2.3872018100358625
aa(lp566
F19.347922239844983
aF4.771049556919476
aF0.5025136851360573
aF15.573524240533787
aF0.47896959972600517
aF1.9449784555564065
aa(lp567
F60.354357174276
aF1.9538826966586986
aF1.7076518439456732
aF11.855705174730657
aF1.2310607206118758
aF2.211685685871685
aa(lp568
F78.83201194944024
aF2.936360109363614
aF0.8902802452890088
aF5.3247150042898035
aF2.305886831618145
aF2.282720545158295
aa(lp569
F79.01001048410501
aF4.876118257091492
aF2.8147977417508785
aF18.773058126478414
aF0.6691979384405844
aF1.1831806117522303
aa(lp570
F75.38974980580953
aF1.655269650716803
aF0.440465486020558
aF93.0325641441794
aF2.521215540043431
aF1.0331639115603126
aa(lp571
F66.39905001040478
aF4.85163163049722
aF0.010935127803432532
aF81.30798660179983
aF0.8249632664239898
aF0.30959508928298785
aa(lp572
F21.174992675108307
aF2.0354392727053665
aF2.1227909811640977
aF88.12665781592645
aF4.082462652748454
aF0.43745548510831533
aa(lp573
F54.64994877516085
aF2.9007890938409204
aF0.20360566459814744
aF40.85373609776438
aF4.048408259001329
aF0.5360317149236409
aa(lp574
F15.900231467262982
aF2.3971818731875274
aF1.7574307261326823
aF63.84686799673761
aF4.549453550255939
aF0.5447080130497624
aa(lp575
F83.17335166818896
aF4.754013506575053
aF0.8022999291163779
aF71.28024319871578
aF3.3670287703238437
aF0.4731440045143056
aa(lp576
F54.48061099350765
aF0.4644254118487695
aF0.6082105194967583
aF7.0451633972105405
aF2.5446850083761037
aF2.1993929072458025
aa(lp577
F93.5032664802186
aF4.728296924451417
aF1.6500881609122189
aF52.62691425550986
aF2.2870488442056387
aF2.4547477069262253
aa(lp578
F82.8272738943127
aF3.0927243463680587
aF2.3198812571358274
aF85.53489955696814
aF0.2717538598365066
aF2.7821361352094054
aa(lp579
F0.412432166398391
aF2.6400988984101685
aF1.7476194173280415
aF92.63021423942459
aF4.830587734780697
aF1.277342125894736
aa(lp580
F29.533649010085526
aF1.0364343833503464
aF2.1386242479783553
aF13.265615059406876
aF4.8704924609666715
aF2.522387937585936
aa(lp581
F7.821295292756735
aF3.803760211043433
aF0.882232102321744
aF90.31399694503759
aF0.6300507679155953
aF2.8220755191894726
aa(lp582
F1.9384056098950775
aF1.9954820169481153
aF1.778974199265465
aF74.97771163203232
aF2.4836950729677785
aF0.37584502311428936
aa(lp583
F40.130700024267526
aF3.5563508629244907
aF2.9418758728921164
aF95.69005892401833
aF4.223160390452051
aF1.1457092391630925
aa(lp584
F75.46234949121818
aF3.590995002706574
aF1.0330895946312766
aF42.64337640456868
aF4.8573049219420525
aF2.7492356161049156
aa(lp585
F80.92332247686838
aF1.1614718810094915
aF0.9019278514057656
aF17.015086498201303
aF1.8099820442712184
aF0.47176731657439175
aa(lp586
F93.39331458719016
aF0.9481712556972544
aF1.3944535236290305
aF62.36960995399412
aF1.4712718846017454
aF2.3250079632474128
aa(lp587
F75.07499567339256
aF4.330041345947316
aF2.1269823356107738
aF40.967007962328815
aF1.6952721551506578
aF0.6737424494965956
aa(lp588
F47.896630581938524
aF1.4746465002891034
aF2.124338945121263
aF16.3685016992861
aF2.5412818523328093
aF2.3695356763767443
aa(lp589
F39.90126514974871
aF2.9459859332403138
aF1.287586972339362
aF96.22286925006645
aF2.5575720090206566
aF0.0798372747583298
aa(lp590
F23.23451639198598
aF3.962436196631671
aF0.5569716103807925
aF0.6579744079310945
aF3.2518190148087447
aF2.4958695934881217
aa(lp591
F33.33274311777067
aF0.9332891922073383
aF2.850091367089288
aF39.92745245049254
aF3.452617985068132
aF0.8411257693486706
aa(lp592
F92.47788515320896
aF4.882089132150664
aF0.3094776088724358
aF39.39383454855091
aF1.9220614280440707
aF1.438033494776063
aa(lp593
F93.28231452438649
aF3.606263497839092
aF2.182007856507952
aF98.3086786424063
aF3.977333360279782
aF0.08275623522192
aa(lp594
F45.305075870753164
aF4.444075947469925
aF0.39447997462088924
aF4.006678814680242
aF3.485975171540278
aF2.3106741204717904
aa(lp595
F77.35212747458647
aF1.028682132343079
aF1.131858834970218
aF39.817889958904274
aF0.11450308941719334
aF2.9241327265773123
aa(lp596
F48.45671913481796
aF3.870532014962054
aF1.540515868409426
aF11.291890205868826
aF2.7424369586982174
aF1.673658800819755
aa(lp597
F49.71191003813813
aF2.757402143289696
aF1.290701649749768
aF31.62178890236599
aF1.4477257872566218
aF2.6623914165138642
aa(lp598
F25.286969785385704
aF2.610496024456399
aF0.8593211162870572
aF73.76110520614051
aF0.025738991698631697
aF2.8168019066061696
aa(lp599
F29.68197906789012
aF2.6144119647939945
aF1.4692713133796775
aF18.29781141057921
aF0.5017584108960649
aF0.7950058254825227
aa(lp600
F32.343075713845316
aF2.860516766348931
aF1.9360228291355437
aF64.8945721959681
aF2.4990543880319875
aF0.5861346728509498
aa(lp601
F15.725820659191381
aF3.624518394702638
aF2.6819741632922565
aF3.280097406340843
aF4.144070183289229
aF2.129746008636866
aa(lp602
F32.88706604859299
aF0.6140655795440941
aF2.1274707065627236
aF50.873308162125305
aF3.4515391880504875
aF0.3202151619142978
aa(lp603
F54.24727415006849
aF1.6016972499220556
aF2.9835257279255396
aF58.08241995895354
aF4.75782814533686
aF1.6728156254338962
aa(lp604
F85.64481572355756
aF1.16173125202497
aF0.04523475672977595
aF60.07240555180546
aF3.6266018727542875
aF1.758876295630233
aa(lp605
F86.34713544809668
aF2.8868546756544995
aF2.2604834008681074
aF40.13688381097732
aF3.523033866360013
aF0.26850950315786637
aa(lp606
F40.20282800626791
aF3.205604831521556
aF0.03626441565997607
aF45.96066652560871
aF0.5917274709934228
aF2.9023907487064604
aa(lp607
F8.216809384190993
aF3.6381543623850203
aF1.719933197244866
aF24.227527947933
aF3.8459412318108015
aF1.5575638934858915
aa(lp608
F32.310517919305596
aF3.5734645952075814
aF2.609831591624207
aF76.44335456172573
aF0.4412739587081349
aF1.0667080088986214
aa(lp609
F69.63078283699964
aF2.743112086640322
aF2.9906469992487423
aF91.26670417587256
aF4.1786971021032
aF0.1862648279102661
aa(lp610
F52.3876290488875
aF2.67868269986401
aF1.5270555321953065
aF16.305524365672174
aF0.4459625080764057
aF1.4425705257289203
aa(lp611
F20.910724469898266
aF0.5067469237552008
aF1.803523616184477
aF21.21892403241843
aF1.6868301760593596
aF0.04211764784682759
aa(lp612
F99.88929695666545
aF2.335120168856461
aF0.46537010479421714
aF71.6459989430822
aF4.029593023031225
aF2.2163429906155265
aa(lp613
F33.54863618186806
aF1.7101953415394133
aF0.07030561763244814
aF13.86458713709372
aF2.302775099881869
aF0.9532364457442035
aa(lp614
F78.20327025639263
aF0.5520887702499783
aF2.4849713510178386
aF77.7354095036422
aF3.839176775484257
aF1.690966789038375
aa(lp615
F76.4101945654104
aF4.688104384385422
aF2.6932579002642694
aF63.57160631922289
aF0.6038469415003744
aF0.41556548686667594
aa(lp616
F60.43692891638671
aF0.04787080938134736
aF2.442413732333306
aF73.20607620210295
aF0.8021687762475488
aF1.478044301570438
aa(lp617
F71.21805445984144
aF0.217060417679088
aF1.6593346216447682
aF31.310544896850978
aF4.176439101210928
aF0.11228636428777461
aa(lp618
F51.510620130465114
aF1.1403738767094185
aF0.5793334483404352
aF53.489035296732204
aF4.042960346546123
aF2.4660798657616403
aa(lp619
F3.9545579377422535
aF3.083355489827979
aF1.7764717998175736
aF51.16681939541551
aF0.609085760070085
aF0.07475099545128516
aa(lp620
F90.07953234027785
aF2.008315737134021
aF2.2477930840452425
aF94.27887712849568
aF0.36074736678170904
aF1.5885986554613505
aa(lp621
F54.305955233666346
aF2.3641353586071894
aF2.2124480557494337
aF75.8737485945036
aF3.3838513478828682
aF0.5652622013798875
aa(lp622
F27.982426553878593
aF3.9960250151847845
aF2.0626415604505075
aF86.2854665377149
aF2.120034093462511
aF1.0893301805954856
aa(lp623
F58.81289987894728
aF1.8506505423841908
aF2.1464895007850795
aF30.10490968584364
aF4.993012331374232
aF2.3111748273758765
aa(lp624
F66.36229295343263
aF1.8438864242134207
aF1.2092036808972408
aF44.09382968418291
aF4.599620434128825
aF2.8458350865536195
aa(lp625
F30.618574422183066
aF2.778441797504611
aF0.24954769360323825
aF67.21628089431594
aF4.323754830973023
aF2.7947813247889703
aa(lp626
F72.85105694921279
aF4.527647950597031
aF1.5666456905643846
aF74.65493385611978
aF2.1562737278520143
aF1.5095980722886146
aa(lp627
F9.842142774982953
aF1.1530040854952799
aF0.10257508344492883
aF25.935656629325877
aF2.5018821135761304
aF0.9974402710447753
aa(lp628
F58.91806435899015
aF0.1397899378506473
aF2.5853117223043234
aF27.13043312042017
aF3.3962899897857124
aF0.7501408015190171
aa(lp629
F23.676575064760165
aF3.0618361084455614
aF2.4324942144125217
aF53.70859943407983
aF3.812204742550392
aF0.49305309550356846
aa(lp630
F20.406079499593734
aF0.7635942108234761
aF0.01363201945711956
aF16.88529320448513
aF4.525702080555266
aF2.6980310873564717
aa(lp631
F91.5618999420206
aF2.362654801541486
aF1.0407542948054975
aF61.010246028869815
aF0.8470962665584647
aF0.03066721245174353
aa(lp632
F55.17010621490675
aF4.00539180773045
aF1.7862168006794117
aF66.51543956399591
aF1.8128210894969703
aF2.9016258939781197
aa(lp633
F64.70663461215422
aF1.848268872977974
aF1.8864847046020636
aF75.1174062267472
aF0.6755120037546686
aF0.28880921197201237
aa(lp634
F8.14963733811247
aF2.9546267169157363
aF2.5943114516036436
aF29.479695651794213
aF2.249086763600566
aF1.5562004065152266
aa(lp635
F44.595930261612914
aF1.8679927249134338
aF2.9973370165584257
aF4.653510093405511
aF0.8459662935071571
aF1.4626303066260804
aa(lp636
F16.658700502056888
aF1.289375477818503
aF1.4130318607077783
aF35.07099341666557
aF0.08524952375897843
aF0.014899517835919696
aa(lp637
F5.215842626635537
aF1.6531855788568806
aF0.5006457561087434
aF38.593056548189985
aF3.497407081260558
aF1.2807157119775592
aa(lp638
F69.71004478409567
aF2.6891435944733693
aF0.9541396148479528
aF93.28382239300744
aF0.8165373065896786
aF0.015269860104788036
aa(lp639
F17.112808566184988
aF0.5019888335945838
aF1.4741840501208654
aF55.08900295957859
aF3.553135081539489
aF0.7292201112080009
aa(lp640
F87.03436009826612
aF1.621998251149908
aF1.2176915171357132
aF76.00353031453639
aF0.007756598117953928
aF2.8984422709191757
aa(lp641
F12.43853593298171
aF4.169596782131463
aF2.107311573176245
aF79.65465844928936
aF0.4488689474802482
aF0.8039381218548912
aa(lp642
F74.28569056993982
aF4.92097552680964
aF2.6570521303476866
aF76.29178411779287
aF3.741101244454304
aF2.7807098399734658
aa(lp643
F41.538632160959224
aF4.795278422611674
aF2.2750485128830475
aF13.740546324030745
aF0.6298351211414532
aF1.0602802333896384
aa(lp644
F0.8925288812617671
aF1.4368499187083343
aF0.2409218482708433
aF88.65710629154847
aF3.03404959265035
aF1.1344922802278374
aa(lp645
F10.270658682076894
aF2.495391220752894
aF0.14316424136701822
aF3.3486145242299092
aF3.222851077886121
aF0.9246734716496603
aa(lp646
F5.28178610150224
aF4.073955991348347
aF2.2530884118489185
aF81.69939559347239
aF1.975315603823129
aF1.363796513018245
aa(lp647
F27.519205775404043
aF2.085390432838862
aF1.567829755121342
aF59.413293308967226
aF2.749954820384364
aF0.4539431259936112
aa(lp648
F75.66840417792169
aF1.5851184568388295
aF0.3304475981197815
aF20.472833816874424
aF4.558361722762577
aF0.988797247747277
aa(lp649
F8.98239268927663
aF2.1918759387737374
aF0.7765952737185858
aF53.082203730652324
aF3.4405213560287873
aF1.5083119923670518
aa(lp650
F79.49798859098266
aF2.6412587082233236
aF2.0382450408065207
aF72.44004043475455
aF1.1461942836569912
aF2.6712074106423116
aa(lp651
F46.68639999212299
aF3.3191358757940437
aF1.9237961543769806
aF73.0293799701811
aF3.436678553585307
aF0.7439370021239525
aa(lp652
F99.38911535140963
aF3.7253677417459348
aF2.6848195292158694
aF77.0516871771766
aF2.2096917372537987
aF2.0879921178671617
aa(lp653
F85.38401549584512
aF4.456865945083689
aF2.6240255654032536
aF94.25198751904144
aF4.704624065806392
aF1.3805295397691717
aa(lp654
F64.52589839710734
aF1.11942554783801
aF0.7100810383395856
aF34.31474570096783
aF2.0159800043245473
aF2.1620172983087165
aa(lp655
F16.406877771376372
aF2.182032796583189
aF2.9566017905952715
aF37.092685677791145
aF2.388447688352393
aF1.0118138830312522
aa(lp656
F39.06071288264098
aF3.2531475288041762
aF0.3813183367982388
aF25.61990412950016
aF1.1281145995174302
aF0.3445841451536892
aa(lp657
F87.80778450959122
aF1.4633579743171132
aF0.13520199925496768
aF63.661192568979374
aF4.767847046179805
aF2.1346289809642167
aa(lp658
F92.23605918077119
aF2.646166541953056
aF2.4512672866484033
aF14.316882749420024
aF2.7541183937632576
aF2.8951388900566863
aa(lp659
F62.18449898384587
aF0.5590136191994416
aF0.6126367096094434
aF36.2530643546811
aF1.0888711033390748
aF0.6496682936207933
aa(lp660
F61.48221452957937
aF0.6922708761766333
aF0.3411618219867909
aF65.49078547198735
aF0.3395951900452704
aF1.650919636217027
aa(lp661
F61.820546430238934
aF3.868709910410434
aF0.106235957491436
aF25.395941724897742
aF0.6555825019037231
aF2.4786565707107875
aa(lp662
F64.8594735269389
aF1.8811676271132765
aF2.2846858408993507
aF19.365343563069892
aF1.0927522924635675
aF2.304415278438113
aa(lp663
F27.36231866948582
aF1.350820961569546
aF1.8157487800878263
aF47.23286593833159
aF4.05018402835559
aF0.36269846589696775
aa(lp664
F79.43574694953661
aF2.4571939040515383
aF1.727093935109321
aF12.199134780558673
aF1.9734126174620963
aF1.3175039596227478
aa(lp665
F8.087879397861464
aF1.3026446065700177
aF1.6703867039034663
aF1.1354761968571103
aF1.8137740533003643
aF1.7374828356865193
aa(lp666
F7.517019166788275
aF2.1627184328177322
aF1.5942911570285188
aF27.75922279624028
aF4.085499655211075
aF2.106297876657566
aa(lp667
F56.31914398528857
aF1.938670795231146
aF0.7202406597044889
aF26.419795831664683
aF2.9335002446956153
aF0.3777079114005164
aa(lp668
F2.037489533614001
aF3.9224386004746226
aF2.4408486036933836
aF8.53046785865812
aF1.1435475392482304
aF2.248392038239654
aa(lp669
F70.93861243023922
aF1.6695940954572608
aF1.6038664357675971
aF49.90680254154025
aF2.821904687910439
aF0.8996130387823686
aa(lp670
F45.92441000225585
aF1.7173451751536288
aF2.3277885318556955
aF83.55796019213949
aF1.8324219543402194
aF2.533760257947139
aa(lp671
F63.43441471139671
aF1.4031429564838067
aF1.2945206384767447
aF25.159276803536066
aF1.2940337249457263
aF0.5380970867479461
aa(lp672
F88.74051737116585
aF1.147763177980905
aF2.375386247694286
aF73.69225029830274
aF4.938187350063811
aF1.1099825525934808
aa(lp673
F91.28964543530785
aF2.6229095507760243
aF2.7975826263174812
aF99.91814528842863
aF4.935678229145232
aF1.2568535240284437
aa(lp674
F83.50300381493464
aF2.697953092240959
aF2.7927918058959227
aF12.974084246867934
aF3.5701860994844195
aF1.4212082483934796
aa(lp675
F61.08513388712085
aF1.8873200764019953
aF0.6980783676196144
aF21.555192579076234
aF1.138683353917029
aF0.6909864833688505
aa(lp676
F91.25419728708249
aF3.9658737379743716
aF0.4814492372999678
aF6.9601912085718425
aF4.816123093031655
aF0.32436095160941025
aa(lp677
F46.45674069219232
aF4.105858774261471
aF0.09453480564389427
aF81.793107695798
aF2.0786431326416492
aF2.7074476383152866
aa(lp678
F56.86214894842875
aF3.3998980839910313
aF2.4212314225979252
aF39.14312652189986
aF2.135300074038934
aF0.5728075536927392
aa(lp679
F98.71606911847708
aF1.002685466482978
aF1.2945834767370732
aF22.05541414617548
aF4.271668255119741
aF1.8315728484634373
aa(lp680
F70.86356314972667
aF2.2589848076277392
aF1.7405908689023866
aF16.706511503601273
aF3.5651255064379845
aF2.061272362619872
aa(lp681
F54.25768741032713
aF0.5370653394253821
aF2.721593567615433
aF12.956851445273166
aF4.5942621871823714
aF0.051419294954736294
aa(lp682
F62.44828481488952
aF1.3531246606554725
aF1.3151663204371404
aF54.77998020493706
aF3.0966455256283294
aF2.088620402437089
aa(lp683
F39.24832215402104
aF2.0021391167043663
aF2.7822188475396668
aF38.50430094704296
aF1.181365748508294
aF2.627407497667165
aa(lp684
F32.04755164141561
aF0.1740825330913004
aF0.3889557681937318
aF28.776931373913726
aF4.844984971184649
aF0.3895385210514394
aa(lp685
F83.42397667483878
aF0.657201493198864
aF1.4857290825080567
aF17.168834756997096
aF4.899060663217712
aF0.5028490342782383
aa(lp686
F11.037735014252403
aF0.20927082680483045
aF0.16704236195247946
aF41.20555566311833
aF3.6240316184012755
aF1.07013278234578
aa(lp687
F90.3894314706678
aF2.77391520563134
aF1.7592744212069251
aF88.38028317314583
aF0.6126580369453383
aF1.6644779614012961
aa(lp688
F10.528571437412404
aF1.8004110127225363
aF0.46882187885613513
aF93.09490451336382
aF4.724851215318003
aF1.4878631994989173
aa(lp689
F24.131950641773315
aF1.7017653801847432
aF2.1193100310961484
aF81.71358256519855
aF1.4290956110466464
aF1.8113245335279928
aa(lp690
F25.76216934655947
aF3.348866619866217
aF1.9442100574962153
aF68.95366616482076
aF1.6586102571797834
aF2.892289580225036
aa(lp691
F1.3920080518056044
aF2.246932113763793
aF2.587379326092081
aF41.626496220494666
aF0.5811265960462331
aF2.9887088592051456
aa(lp692
F87.0383342765027
aF1.313060540485436
aF0.8595585315855206
aF25.659987345078218
aF4.428899375397143
aF2.798980514831277
aa(lp693
F90.20133463259715
aF0.6647671160300572
aF0.8442365049097663
aF10.452641134930385
aF0.2863657532965391
aF0.23447271710286433
aa(lp694
F13.390745655124158
aF4.619307217962606
aF1.2247864793628955
aF2.7857073271783106
aF1.7973905590852284
aF1.4311380658487964
aa(lp695
F61.35995288024551
aF3.2797591552165564
aF0.4456773535925309
aF28.048935946458663
aF0.8175215907773675
aF1.5786029511587998
aa(lp696
F47.70168238162673
aF4.529449100225517
aF0.0026776885648029936
aF23.523875210361588
aF2.259918515779005
aF0.2093272731686937
aa(lp697
F97.32169475774911
aF3.7214903716866625
aF0.013327473834557901
aF17.233897988859283
aF1.8962737081064485
aF1.9905375591940822
aa(lp698
F71.9621487783885
aF0.2516116285876646
aF1.5045299842269566
aF88.90665639517205
aF0.4603076806225642
aF0.505876410963288
aa(lp699
F31.557590449759765
aF1.8267179430067797
aF0.427287764408777
aF21.189025129525916
aF0.13903204513192935
aF2.5914550287668527
aa(lp700
F36.29299550832944
aF1.523617065281531
aF1.6480276729700587
aF20.011529599092647
aF0.21654115003231889
aF0.321292135854624
aa(lp701
F61.65428091560802
aF0.08942936509532429
aF1.9255845835713448
aF50.64640359013253
aF2.584598222020087
aF2.5024917498079966
aa(lp702
F67.5946883121306
aF2.7459849710244235
aF1.1683777233395802
aF78.80225845845425
aF0.7895642648169082
aF2.147328387099187
aa(lp703
F56.436182586518626
aF2.2126130381606095
aF1.32420831116038
aF64.79751229696188
aF3.128064675014089
aF0.12627786075058867
aa(lp704
F43.017561574804255
aF3.5793745281895726
aF2.611116791100841
aF90.83824457251298
aF4.88417575087888
aF1.5025073529626458
aa(lp705
F28.120579013946433
aF0.16189948121344222
aF2.8888523022397385
aF32.41927707148298
aF4.433735759239528
aF2.5217441849390716
aa(lp706
F78.16981251733174
aF4.718641896122034
aF2.7322040939597168
aF25.89867298910884
aF2.685435701145926
aF1.880258131332078
aa(lp707
F75.96194379533078
aF0.3870481062748299
aF0.2993027495843179
aF22.53649454044815
aF3.3285462662595933
aF1.873957272857389
aa(lp708
F7.844591922520694
aF1.157165460263498
aF0.7595076705694792
aF87.18247406301029
aF3.292396736033249
aF2.4498348124718894
aa(lp709
F80.86901744018445
aF2.862076413218833
aF1.4447009123126477
aF5.190487557515877
aF4.275086975480546
aF1.331406702760633
aa(lp710
F24.558297510783245
aF0.23366247815169605
aF0.16523613711571528
aF78.083764444007
aF3.613331024009409
aF2.8729329766364873
aa(lp711
F91.16255985843841
aF4.128702708767752
aF0.11802323302549678
aF39.16202910872199
aF3.7143705464899957
aF1.0025452730872884
aa(lp712
F4.177092591290544
aF3.6271892340885143
aF2.4682223142750104
aF68.59436975871752
aF1.5431933183165887
aF1.8411723796234019
aa(lp713
F51.87936808019553
aF4.142135042544935
aF0.9012566629106762
aF42.843507736232134
aF1.9930329549914516
aF2.9793659426830295
aa(lp714
F58.279602265890276
aF4.770552304680989
aF0.49175791558051085
aF32.658829000529735
aF1.8617109377185659
aF0.8736846383320533
aa(lp715
F34.425564980360065
aF2.044915317210914
aF2.2806436721961014
aF70.59616817135958
aF1.5323355866900275
aF2.4909179642618797
aa(lp716
F62.96700131550409
aF2.255645310302726
aF1.6372635028776994
aF95.41258672553312
aF3.861915820337803
aF2.506982296787131
aa(lp717
F46.035882251445706
aF2.6781313406393865
aF0.9272653168443047
aF20.842445694177126
aF1.2281454372916696
aF2.963079175053358
aa(lp718
F12.504522478004743
aF2.4036748043038414
aF2.877869034612482
aF9.150074209512605
aF2.894845282058862
aF2.0708815628908583
aa(lp719
F83.22815874881432
aF4.323944541942283
aF2.122356753857611
aF90.14402270775108
aF2.0056407512745937
aF0.6465277613211793
aa(lp720
F89.32738270541817
aF4.708718137885926
aF0.6802443027074383
aF32.93407772182113
aF0.5052474992463013
aF1.6566195263389267
aa(lp721
F3.8387264367348517
aF3.0089244346770174
aF1.0551933597180971
aF0.996776460639448
aF4.008838466420608
aF1.0676268492759293
aa(lp722
F1.8741069038658353
aF4.896436339309168
aF2.3780323456776093
aF63.05325827371673
aF2.948698417915744
aF1.8692909060842355
aa(lp723
F40.76745053684705
aF0.10473933898171639
aF0.9946624284479655
aF42.564507781155434
aF4.816090886331342
aF1.964913620707271
aa(lp724
F12.645687128658988
aF4.792622992574873
aF1.4755212440225252
aF94.52776307168678
aF3.9589120211484508
aF0.9714119366939779
aa(lp725
F15.909912708741047
aF3.727915998750189
aF2.625059582236787
aF31.077381032650585
aF2.2687897378125355
aF1.2726721400908998
aa(lp726
F31.382563520545304
aF2.4434495943132934
aF2.227614231490209
aF38.35925889871066
aF1.5701624928399749
aF2.7510029077320075
aa(lp727
F34.991900608962766
aF1.9076059868915674
aF1.2077086469105383
aF93.80077365028542
aF3.2748947042166283
aF2.211572325277352
aa(lp728
F69.63783100805989
aF1.0242689086703156
aF1.8200425500937363
aF27.39051631327426
aF0.1890469790625232
aF2.9303739937920086
aa(lp729
F19.60042198454537
aF1.3980767457882677
aF0.9870160855572874
aF33.57385090120943
aF1.3409809896473983
aF2.0367557476271196
aa(lp730
F58.41717464054034
aF0.527133591809234
aF2.214688734414633
aF86.4475560414735
aF0.014949155104397316
aF1.1279934489510626
aa(lp731
F94.9545679255538
aF0.2572097278752594
aF2.2373670828801995
aF57.80409721562793
aF3.292466971014247
aF0.7219588404804504
aa(lp732
F87.45993770946741
aF0.5640564130462333
aF2.1780213032678724
aF7.929039421426443
aF1.1692916017387178
aF2.9872126382978816
aa(lp733
F1.4318264360241084
aF4.764092150818631
aF1.7739498828589746
aF19.06422887970347
aF4.2665064942910105
aF1.1154364835238493
aa(lp734
F67.05402350516664
aF0.8155908963152042
aF0.5220854230026383
aF35.19624652418503
aF3.6829291497543033
aF0.3814229977722958
aa(lp735
F41.15046908809011
aF4.22269798249851
aF1.9103467688943927
aF48.92315882958751
aF2.957592172850671
aF2.829166601492349
aa(lp736
F76.69233393843085
aF3.0343440657844756
aF2.8597717455089375
aF8.531679197050412
aF3.9441880792423314
aF1.8691938892314286
aa(lp737
F99.03103461352204
aF2.3058705961823827
aF0.5858487229431472
aF80.9923771897323
aF0.8400057891025403
aF2.550920040088999
aa(lp738
F68.28465806723062
aF3.80743664601342
aF2.407013325891508
aF42.49553910501418
aF3.5757776155104293
aF1.2632019021569114
aa(lp739
F21.021508625612384
aF3.3093445506750827
aF1.7111336047940031
aF6.886211100418194
aF3.3228247008737375
aF1.881423329074404
aa(lp740
F56.40707511112395
aF3.894969856062624
aF1.041018738245973
aF81.63463182556836
aF1.2713183213677692
aF0.45108876445235935
aa(lp741
F58.519736802031616
aF1.6173703782170707
aF1.391411463577356
aF70.88416928001804
aF4.618473939324315
aF1.269248012368214
aa(lp742
F29.87742056056143
aF2.2539031506066687
aF1.3858431762758072
aF4.360722042203491
aF3.2887198965622866
aF1.3231010194919852
aa(lp743
F77.42881880096617
aF0.7840994139259821
aF0.2543000044851539
aF64.09436486281056
aF3.8946179246025805
aF0.6599602965622248
aa(lp744
F46.60897738680438
aF4.628512719939007
aF1.592979945311456
aF77.99377003071287
aF4.582273865388739
aF0.09718920588146729
aa(lp745
F88.56635036202465
aF4.744040873423862
aF2.997889791200525
aF67.25032012038413
aF1.0250366200153653
aF2.2026454842568737
aa(lp746
F81.37324122010094
aF2.0854862895744213
aF1.6308752256075332
aF2.830010661852178
aF2.291690982624285
aF1.5430493306677309
aa(lp747
F74.38618771070111
aF2.863693597117141
aF0.4148551602749173
aF96.742459158214
aF2.3132530116796173
aF0.060591705353721825
aa(lp748
F32.81432272655046
aF1.3798290716019852
aF2.7731071616626424
aF52.484222620856215
aF0.7585355284237799
aF2.024490304953537
aa(lp749
F24.383112330471878
aF2.5155004459935686
aF1.9221811856932947
aF81.26031439327905
aF1.7845154320437389
aF2.6476596817594213
aa(lp750
F15.234665899435262
aF0.7964588812479795
aF2.1186098597418894
aF11.208495307655664
aF2.4181425084029002
aF0.6953724772352448
aa(lp751
F51.81753921995027
aF4.459364652684138
aF1.1194261337364428
aF59.9902537924949
aF3.461558507820815
aF1.6699926959834746
aa(lp752
F28.444122610055743
aF0.7060363459458552
aF0.30740522774429624
aF56.632042097506144
aF3.6871835431854754
aF1.4476329506032883
aa(lp753
F26.54688459611808
aF2.3905942281575876
aF0.6744762748546007
aF16.74893142520727
aF0.4406510007817127
aF0.18833706509154957
aa(lp754
F50.04599361502884
aF2.9342272484005365
aF1.0031841733755797
aF56.50504831354207
aF4.007500374093476
aF1.5002033029472153
aa(lp755
F81.6386192008643
aF1.9824605624938192
aF0.12398099485995362
aF4.225728808207563
aF1.7708532884821921
aF2.1014652050232803
aa(lp756
F61.475028988948665
aF3.125781311249245
aF0.09468631543435124
aF45.16920628044668
aF3.0901877030617326
aF2.0614543537254515
aa(lp757
F25.740733168460117
aF2.412187734429318
aF0.32667264358828507
aF43.75128144204644
aF0.22751753542832598
aF0.4597230640084594
aa(lp758
F16.356342091089605
aF4.0274358419325695
aF1.0378997849767317
aF93.9382939442835
aF0.8057004850682742
aF0.35475424380922926
aa(lp759
F77.0509449642752
aF3.5508432509031307
aF0.17067598490752423
aF95.32445501619287
aF3.37042367770616
aF2.2684926236897427
aa(lp760
F41.2796031458299
aF0.5414786612549194
aF2.4966102644061197
aF63.237957245183786
aF3.325400950429389
aF0.31079440944243186
aa(lp761
F52.13626982238454
aF4.286916329896011
aF1.1815295236873893
aF99.50663850121057
aF1.3695669361645195
aF2.080199222911763
aa(lp762
F16.74359425116314
aF2.5626824050398653
aF0.9063228846383544
aF69.31022774249058
aF3.359565609743411
aF0.15037345396304913
aa(lp763
F77.30755574817036
aF1.2064099680323315
aF2.355905722260451
aF92.78200419894898
aF2.2383410712135903
aF2.9724169764425907
aa(lp764
F25.529855180166937
aF4.050204382779664
aF0.938144707744649
aF60.149858134650444
aF3.393777447773647
aF0.21159660104157696
aa(lp765
F86.89499619731984
aF1.8955163798731016
aF1.0341322233976868
aF45.79078411058737
aF4.652290383446685
aF1.452297433332768
aa(lp766
F76.53098572948825
aF1.7189526428127633
aF1.1910323401698353
aF71.15702576002758
aF2.4887388282556087
aF2.4314986217306727
aa(lp767
F29.90347730871381
aF3.0159510594082617
aF1.8765894847469855
aF44.25948022962986
aF1.2429024311941306
aF0.23308170738218248
aa(lp768
F95.92609831580734
aF0.553760634264589
aF1.1375935373570782
aF12.327619534297385
aF3.3263804312673013
aF2.6670514842710795
aa(lp769
F25.025297362429466
aF4.138147988649847
aF0.4880355316949082
aF65.90120871158788
aF3.3314274486490363
aF1.1626886934747418
aa(lp770
F25.063627635100417
aF0.28263420857189914
aF0.9121022567481758
aF56.396571618342996
aF1.0061171010338605
aF0.6751033002855308
aa(lp771
F52.813008688542325
aF2.8512535810708615
aF2.539938824942083
aF27.314741264461627
aF2.054620550858193
aF2.9137573990633934
aa(lp772
F48.745804430439534
aF2.371593582685445
aF2.4178040739789166
aF42.544057617297156
aF4.353677312628364
aF0.4535655287563132
aa(lp773
F90.03907524877715
aF1.8808152506269793
aF0.26054462914828025
aF93.01424449320633
aF0.6866986111521917
aF1.3188934633810208
aa(lp774
F37.747260554261096
aF4.316111575585729
aF1.7644302224956037
aF98.58041794488194
aF3.116326922098547
aF2.552724945237494
aa(lp775
F99.93054779958052
aF4.933084815720141
aF0.8476640840377926
aF95.01098811034402
aF4.375195910295179
aF1.2626642015179503
aa(lp776
F21.593246533582956
aF2.3091273220976056
aF2.5082808429174674
aF88.92877927443978
aF2.562756806296887
aF0.8224195878654653
aa(lp777
F11.113128396475314
aF1.3372145249403677
aF0.7446619102872281
aF62.80945169653194
aF2.4815160445218796
aF1.60654918094335
aa(lp778
F48.67818672932438
aF2.8734048818170326
aF1.265570815978848
aF88.05468784104973
aF2.9476263439933192
aF0.6432122445343772
aa(lp779
F68.60938071062547
aF0.144399617836114
aF0.1905353004144812
aF52.427672665499756
aF3.2113745177176227
aF2.906861435746454
aa(lp780
F97.64983587309011
aF3.5394155317623883
aF2.805730839277219
aF25.740345267524468
aF1.1806474224963508
aF2.092058883766932
aa(lp781
F81.56765452219774
aF1.8197655009371172
aF1.7782543564146567
aF45.97658391602422
aF3.539294790451841
aF1.1555502368561457
aa(lp782
F16.711684966809237
aF3.3095942794972304
aF0.9911342498740413
aF76.80501370218752
aF0.6798335010505618
aF2.748808939279292
aa(lp783
F63.46596041374576
aF4.462074494475635
aF2.3509551552339745
aF95.29963251912932
aF0.5047564005318111
aF0.570041171119734
aa(lp784
F6.082930783819629
aF1.9331941043160816
aF1.0067272595972874
aF11.760843340200411
aF4.38893680973494
aF2.3300264306411793
aa(lp785
F54.9320780428001
aF2.60416364892793
aF2.771503049710606
aF31.143937811775956
aF3.7536516042212713
aF0.26575330849078305
aa(lp786
F5.061874141987188
aF3.6902719754617648
aF0.44051116276356994
aF59.31644784107485
aF1.2942426710499548
aF2.452639668796343
aa(lp787
F58.34420839236307
aF4.456844012819743
aF0.9199520082306191
aF96.38658238218247
aF2.1349047501846123
aF0.28648553299931
aa(lp788
F23.983746634461856
aF2.182711462067716
aF2.28141337121625
aF24.89589811575027
aF2.8144765669134704
aF2.4358658285729407
aa(lp789
F26.333534708252138
aF3.351251807886463
aF1.7049919397116047
aF93.34319274278313
aF3.166976562391244
aF1.3020985682414554
aa(lp790
F69.78414951601172
aF4.473056614670201
aF0.1924667490223092
aF32.33865019256055
aF4.576217537823444
aF2.560091197193736
aa(lp791
F96.82054706973676
aF0.8450905829304917
aF1.769945888227201
aF78.6546693984931
aF1.2810220910385983
aF0.3135379696311237
aa(lp792
F26.551692507271873
aF4.5381910501516645
aF2.6598831103906715
aF87.05083737927256
aF2.3211036593469867
aF1.1573804503104337
aa(lp793
F75.99750493941046
aF2.4930499562060433
aF0.9981833773433482
aF36.67101050825102
aF4.183929516545021
aF1.1746197738035384
aa(lp794
F68.98342397631515
aF2.2722817956657186
aF0.6497862277997845
aF77.29762469018988
aF4.047526396234295
aF0.016811164469508033
aa(lp795
F70.47059001486055
aF2.5503111833882945
aF0.7581282332980822
aF87.40616359004079
aF3.5239349446959336
aF2.9004127392658914
aa(lp796
F61.94357065133176
aF0.7789246406883982
aF1.5055410688968842
aF51.82001278711227
aF0.9672246494570885
aF0.9985652827532835
aa(lp797
F56.44509041705372
aF1.3486683815616534
aF0.838024484054318
aF76.3398590739923
aF4.096066340947103
aF2.8246458692924934
aa(lp798
F29.88785316408472
aF1.0510507065511638
aF1.4035354104051945
aF37.830675426169314
aF3.093088581983217
aF2.913901762839588
aa(lp799
F44.4332720481593
aF4.48350581410897
aF1.7996040062180572
aF27.398540874695133
aF1.383006350256284
aF0.9219694326709195
aa(lp800
F19.046739123435575
aF0.776436609434597
aF0.21191719831930766
aF43.21101367761821
aF3.3511313625097783
aF1.919856504476596
aa(lp801
F52.64092508574674
aF1.7605352897461424
aF0.545664460665731
aF20.60585245654408
aF2.910730231694056
aF1.472029943987506
aa(lp802
F27.598346507055172
aF0.9121450510478113
aF1.7606475825145789
aF90.08630556329665
aF3.486137891544543
aF2.7782585254648344
aa(lp803
F9.135019294134183
aF2.161153588451126
aF0.5111947100305898
aF95.4632326604978
aF1.5816594484229085
aF0.891991262413499
aa(lp804
F35.55706485979013
aF2.6050890960436472
aF0.30176593762221404
aF95.84520716826876
aF4.295941039942077
aF2.741437275816795
aa(lp805
F54.847291505578475
aF0.5773195874606013
aF1.2000072327723188
aF15.02616507788359
aF2.3058019146691415
aF1.0259827976045754
aa(lp806
F45.56963018991481
aF4.798206399407572
aF0.7017725797818906
aF86.55611456093584
aF4.308196284183915
aF1.3193216414507973
aa(lp807
F65.94818529211534
aF0.5802900640257314
aF0.5467666784333498
aF82.21769591442857
aF1.0127614814498194
aF0.018349727174331587
aa(lp808
F1.5933118527544643
aF1.1047769160979866
aF0.8328491532581039
aF71.43041663059819
aF0.3272243909054984
aF2.808282844390481
aa(lp809
F19.864678273991267
aF1.0929735842488308
aF1.4294658961883604
aF23.00825644313781
aF0.34587621435351545
aF2.4764075384674085
aa(lp810
F37.0023978182488
aF3.313260706283563
aF2.8575089033654164
aF55.48344875626997
aF3.3975643585681183
aF2.6899707850861194
aa(lp811
F68.74627496778662
aF3.1088700294754723
aF1.0783443782309647
aF76.99262555755332
aF3.7121598368552515
aF2.354940242893819
aa(lp812
F4.1528052641138125
aF1.8190205693891537
aF0.7337477409757445
aF26.53338293123655
aF3.880536720841676
aF1.6490548737264001
aa(lp813
F36.59766765081132
aF4.8411623359378995
aF0.22118633778064944
aF88.20772295328561
aF3.8227426707959533
aF2.5332778506424254
aa(lp814
F74.1744989923769
aF4.082479024330903
aF2.6358896246954435
aF55.211932095962354
aF3.507511027822858
aF2.7777986395792853
aa(lp815
F31.73717853412006
aF3.337446947208843
aF2.9506543283744513
aF78.39809728002781
aF0.39133847666266985
aF1.198363921369328
aa(lp816
F24.264495110438354
aF3.7927200651441977
aF0.3492026364770865
aF30.904601144671272
aF1.7493395867272654
aF0.9560519436285774
aa(lp817
F97.64547318279313
aF4.232589866596113
aF0.12238144578467569
aF67.30725424519348
aF3.663541845016497
aF1.9074132083059725
aa(lp818
F30.997519369782534
aF4.834316695736228
aF1.3774065077058042
aF40.235956973362995
aF1.7595792069163192
aF2.472300334079515
aa(lp819
F99.84700670461825
aF2.4981639668337436
aF0.215875004816365
aF31.118362566348946
aF2.8014338108821786
aF0.04543272567818968
aa(lp820
F6.4810350355833934
aF4.816568314435777
aF0.8653333913598831
aF95.52753798449568
aF0.2510213872128203
aF1.1429098503252417
aa(lp821
F17.39848418857943
aF1.9711201158228615
aF1.8172455130777312
aF86.1861556777984
aF1.3103098271212938
aF0.7602410902974172
aa(lp822
F32.04891705921783
aF1.4723019872869787
aF1.7926190835634812
aF14.151519606658447
aF2.3199155781024645
aF0.5972071478609413
aa(lp823
F64.08796751403507
aF2.0350792169810865
aF2.8490947537585685
aF16.557977607749407
aF2.3541500857990414
aF0.32835044309437333
aa(lp824
F88.32572331341663
aF1.2700467025296485
aF0.7657566680453138
aF79.37701767380666
aF3.33638920713172
aF0.586852446226114
aa(lp825
F91.96516670558711
aF0.5599199733020349
aF1.182075828281251
aF79.20085762118461
aF4.714720644459459
aF2.668650972827881
aa(lp826
F10.868947112897608
aF4.414870339321819
aF0.8066885530399293
aF3.474205636433836
aF0.5320708499571097
aF1.1717678237455895
aa(lp827
F94.59525257127324
aF0.2352579896991619
aF1.292638408421837
aF87.02766837650563
aF0.09237719424253776
aF2.444594132316599
aa(lp828
F20.55503709255898
aF4.58073927181216
aF0.4751260104790016
aF75.82230783893844
aF4.354952553623469
aF0.3057799432294216
aa(lp829
F78.7529164096086
aF0.6010970263699938
aF0.8565105874784369
aF9.753913321730213
aF1.619280888982384
aF1.7308830636855477
aa(lp830
F67.0125240784466
aF1.2422616441900236
aF0.508452449103892
aF64.13929633851878
aF3.505004999907357
aF1.708704097248083
aa(lp831
F95.46066609248489
aF2.528666430450796
aF2.227319187558166
aF96.84399850735062
aF3.4054473417830478
aF2.6632471966336393
aa(lp832
F60.03785105209688
aF4.762622451167694
aF1.8558194057590862
aF57.48676740078118
aF2.686193258725716
aF2.9488121540765384
aa(lp833
F51.56072967510978
aF2.6807234712217487
aF0.0684967774708356
aF92.60574480618975
aF1.3153785465545904
aF1.5296893576317596
aa(lp834
F64.75281406271772
aF3.0464116467133415
aF2.242425787855121
aF4.919359913867705
aF0.1722308063468314
aF0.12700224615662237
aa(lp835
F77.11291529767999
aF2.9270389239991927
aF0.5061362535649063
aF20.41208985564783
aF3.698834718370159
aF1.4226363013350631
aa(lp836
F68.98525237581451
aF2.0857440247682257
aF0.6568056960196142
aF38.17939867638289
aF1.0231391957236475
aF1.4403565199437498
aa(lp837
F6.010002123948399
aF2.174695077206714
aF2.4426672049551605
aF23.76550400891999
aF2.967689342589135
aF1.991198065101655
aa(lp838
F14.885542977130195
aF4.003200855411949
aF1.711152478918903
aF7.854286994262305
aF0.025202588568797868
aF2.9182093842547383
aa(lp839
F8.523268255674088
aF3.0377623629359904
aF0.3370865166236361
aF97.44833276978699
aF3.936184497780046
aF1.0632481290470635
aa(lp840
F7.930470620193864
aF2.979764878106902
aF2.8514174444367413
aF94.21579012039798
aF1.230055476845238
aF2.816215153231801
aa(lp841
F22.400728367805655
aF3.15665080128535
aF0.19403101689880098
aF30.602470634901003
aF4.731795245803682
aF2.663201429041927
aa(lp842
F86.66962803895908
aF4.831142571977152
aF0.21299072042849432
aF99.43742107376423
aF0.8712174667707262
aF0.33057289330782436
aa(lp843
F1.91237152449929
aF4.931289614032728
aF1.2438231782415556
aF11.288739070039167
aF2.1275855604279603
aF2.2391184570929017
aa(lp844
F33.504319112893974
aF1.8735651917223999
aF1.9248710309582715
aF68.77314724320637
aF3.2181687815811975
aF0.6022639303520029
aa(lp845
F99.19936001879354
aF0.7308121234256393
aF1.3275594295880881
aF99.69139132259708
aF0.17233709526501606
aF0.03607140311281842
aa(lp846
F2.293135310155703
aF4.50232684483094
aF2.0410018608890663
aF4.267555274688483
aF3.966900570161596
aF1.2355929419049225
aa(lp847
F83.64854575697754
aF3.5093169390163013
aF0.5575939024084136
aF95.94519069222875
aF4.526900771198285
aF1.2808163999892659
aa(lp848
F6.5460639466025095
aF4.691596770105575
aF1.0161545770889016
aF25.421260167882252
aF3.097008096174652
aF0.3516924977887457
aa(lp849
F33.17396333385042
aF4.311475352333972
aF2.877508467706366
aF21.434238014599327
aF2.4126994953517538
aF1.1791039985838738
aa(lp850
F93.69329544607503
aF4.989490937786297
aF2.923481486168649
aF84.97052389574466
aF1.8382492698473984
aF0.046522681201868865
aa(lp851
F73.46127819197952
aF3.9597055291084287
aF1.514583418265427
aF23.809213905167038
aF2.1168575440260504
aF1.5623352192328772
aa(lp852
F40.481646388093715
aF2.213848200160528
aF0.8798232111790628
aF6.839932865044263
aF3.7872755320285045
aF2.0792138240517053
aa(lp853
F50.383054585473744
aF0.8760718176312315
aF1.393340399132923
aF72.78691187772496
aF1.3230675358406607
aF0.33447425755705584
aa(lp854
F52.63271341511743
aF4.845881160510389
aF0.9496918558293218
aF55.91435086822658
aF3.848689308937747
aF1.080888577566279
aa(lp855
F21.88518169961512
aF4.318547630159432
aF2.597315632171555
aF51.352329712348585
aF4.870259473309138
aF0.37435082171789513
aa(lp856
F47.27286346305608
aF0.9549817480896361
aF1.5900287455504747
aF14.58257163836938
aF2.202212260916821
aF1.6431101455274066
aa(lp857
F74.84118728940197
aF2.4617082962165537
aF1.4954688861377572
aF2.9246843645663767
aF2.1722778579253976
aF2.526677367535116
aa(lp858
F55.98083782992952
aF4.414379810684289
aF0.05916928169944258
aF53.17319394732264
aF3.9393880663812215
aF0.29497727520558725
aa(lp859
F92.15177254337686
aF3.226074934401752
aF2.0097842755417386
aF64.52961935795247
aF1.8404294380111157
aF1.7186585235548308
aa(lp860
F50.073204563402385
aF0.6674369931034646
aF0.13297188327123344
aF20.619788448631283
aF3.164273172686602
aF0.09877874549308263
aa(lp861
F73.70505261814476
aF3.809978079761767
aF2.8600343045793544
aF27.390299340767722
aF0.5558071378559737
aF0.42693495318352415
aa(lp862
F40.91585303793136
aF3.6706218450466466
aF1.849275037820897
aF17.5865572298867
aF2.236086144756953
aF0.537787712819979
aa(lp863
F39.47186843098287
aF1.9325540536024794
aF2.746054557075249
aF3.0254653253100616
aF0.3366944065194183
aF0.12912464991095784
aa(lp864
F92.76282456377548
aF4.014233468175871
aF2.977948987667136
aF35.2658114378629
aF3.280970847447265
aF0.8073490777839205
aa(lp865
F59.722354894050966
aF0.9868913535216856
aF1.5249716960056285
aF18.652845443627854
aF4.2144240826200665
aF1.4381751578704849
aa(lp866
F25.480977064015708
aF3.680138821563652
aF2.009522889234656
aF76.40555008936344
aF2.0354014964106626
aF0.590616160447621
aa(lp867
F54.96161141321155
aF1.6124277957700406
aF2.5492757512519146
aF82.8912423068231
aF1.9857031162706589
aF0.33176122634745475
aa(lp868
F40.19315399813684
aF0.40769839863711077
aF2.0634003467122897
aF4.340012899406709
aF3.7605199896852777
aF1.2493869872055943
aa(lp869
F54.67194888585848
aF3.9278567562069915
aF0.5557974049879575
aF37.418618730576604
aF3.7522633897339484
aF1.3073753643868518
aa(lp870
F96.77560389255258
aF3.759681596322685
aF0.7522962978866126
aF12.001963978021257
aF0.3656978021746504
aF0.2606437370746716
aa(lp871
F48.19413176702836
aF4.761086069422596
aF2.188659072428404
aF49.02232550771729
aF2.1352602030146905
aF1.3529919670163832
aa(lp872
F26.270734852925102
aF1.9600027444715722
aF0.590545146500908
aF38.06582799959196
aF4.7256433849194455
aF2.2808238855998177
aa(lp873
F81.34761555531858
aF3.800569296174239
aF2.0158842385508033
aF50.40732929893148
aF2.8175763436879855
aF1.5331544892121838
aa(lp874
F37.17339723155286
aF0.7683562377382513
aF0.005393347092356615
aF58.8861148710393
aF0.47338010778559314
aF1.6119645317453104
aa(lp875
F80.8431810773624
aF0.8398985712096568
aF0.36894952028569605
aF77.6577273279276
aF2.000371268069074
aF1.8451452915047777
aa(lp876
F54.99113813375737
aF4.2573400112868125
aF2.361210168662653
aF54.22685000817092
aF3.2065995468123147
aF1.9298954022062589
aa(lp877
F10.100865107590252
aF1.3985540977755968
aF1.493336928435076
aF47.356419744570225
aF1.5860541813978863
aF0.8965994978503037
aa(lp878
F5.888292451931654
aF3.7855559509526175
aF2.9164875002125554
aF7.2018412081939935
aF3.9823476889987592
aF1.1674008235198363
aa(lp879
F4.10128413971348
aF2.9453841456286396
aF0.8804275804116665
aF30.768655143649436
aF0.13099357038360127
aF0.7031582922801174
aa(lp880
F4.712608763228743
aF3.4753338679850403
aF1.6940162352258856
aF0.7565581625787798
aF1.6875820895996474
aF2.9305640029455287
aa(lp881
F22.54843339974959
aF2.4557798050166726
aF2.7757037641543567
aF12.51719840126323
aF2.922781657699956
aF2.815321554314588
aa(lp882
F84.71799458676867
aF2.27286737035672
aF2.3155450107438558
aF21.550174606218476
aF0.7751582609979174
aF0.8630475195811249
aa(lp883
F3.1521294068778904
aF4.57243693659625
aF2.4702618066077884
aF45.440083462168005
aF1.0065835045138098
aF1.6547144754928178
aa(lp884
F94.16966114128321
aF1.9027281995054053
aF2.145477693829779
aF14.28741240634257
aF2.6271606754172785
aF2.2391271523820793
aa(lp885
F67.94786533464988
aF1.8498184270654183
aF2.1775570309810464
aF70.53789879906044
aF2.484209396500029
aF0.018544478090146255
aa(lp886
F1.5341968215039303
aF1.5792705714702948
aF1.7606538169789934
aF37.1750304291543
aF3.5040287396363134
aF2.0557520865287366
aa(lp887
F9.680395303565836
aF4.163218842271359
aF1.7856326008491255
aF36.1829668192004
aF1.0960248282908962
aF0.5209714816580253
aa(lp888
F4.220231525372753
aF0.37367536509193555
aF0.49369192960858477
aF26.982814560861467
aF2.1763234404040093
aF2.7526748078183267
aa(lp889
F75.05056919768761
aF2.474822511706511
aF2.55310693417033
aF38.08355901606547
aF2.668850351365063
aF2.1493801295292903
aa(lp890
F16.97823099261929
aF3.3872386391222653
aF1.0039661035044722
aF99.218181044376
aF0.24620587596955346
aF2.34369493642843
aa(lp891
F51.69847224756441
aF3.9741830834697343
aF2.5101817663368347
aF3.405798006379912
aF0.033407366352598555
aF2.742017134352928
aa(lp892
F27.918683049203164
aF1.1024331075636429
aF1.769848828847559
aF40.653023891911566
aF4.88269333742786
aF0.3947886126903922
aa(lp893
F96.38427817742956
aF4.186739754334518
aF0.8684689409552185
aF24.57250815671036
aF0.5575714723500819
aF2.768233608834867
aa(lp894
F57.273652101109384
aF0.08580318272627063
aF2.118939802953413
aF41.756479218024225
aF1.988296168933989
aF0.43152651624845173
aa(lp895
F58.22721494366563
aF0.34046974217393
aF0.04370281912543861
aF83.51930657115172
aF1.5318678837642081
aF1.6900578141575124
aa(lp896
F51.497673613465665
aF3.4591290848937635
aF1.8025454442891737
aF61.142805296205
aF1.919298491287591
aF0.9158143784010109
aa(lp897
F64.44471470591853
aF4.268615498492037
aF2.9272871588235767
aF40.448102253067894
aF2.9138782752425274
aF0.541167929738841
aa(lp898
F39.25017213152992
aF2.4369993617346797
aF1.7623202879437694
aF91.0964923700796
aF1.0667656870101943
aF2.5113472467545135
aa(lp899
F1.3569689333872148
aF1.1245641838183318
aF1.399895051848937
aF73.2004129605182
aF0.7847217069312751
aF1.6037968999204288
aa(lp900
F83.86217520259707
aF2.8063631354164844
aF2.4082311594010397
aF95.37256827893937
aF1.1116087994980306
aF2.4095566583187997
aa(lp901
F47.28164931191527
aF4.786288668388542
aF2.3319696807439794
aF23.305874289373886
aF0.01787513186304157
aF1.4134464091112529
aa(lp902
F99.0483312295044
aF1.962245136744486
aF1.225762848256993
aF53.227138256439055
aF2.3284432629029936
aF1.791257217618818
aa(lp903
F62.17465825792408
aF2.1239162974461085
aF2.7808936798528143
aF96.5821695840149
aF3.1739022208379626
aF1.1617095519517435
aa(lp904
F7.621471818086267
aF3.3803112994248066
aF0.48428656151478566
aF89.30343870180415
aF0.7098781140271926
aF1.9325088326865147
aa(lp905
F50.94318406356096
aF4.7021677576854035
aF1.3761466330364054
aF22.44782428268268
aF4.667007215777017
aF0.8682114495023399
aa(lp906
F57.19465902871941
aF0.23698581719365452
aF2.5208857432945107
aF0.9055665095119236
aF1.6621557034739942
aF0.8477262094443361
aa(lp907
F94.06740518861865
aF3.211359179739671
aF0.785581637109834
aF46.07661050645976
aF3.2851801470667485
aF0.440598853893135
aa(lp908
F72.03279295499937
aF4.171297828436874
aF0.10136265486166407
aF15.467718584096557
aF0.0054110604595686285
aF0.8390348926481174
aa(lp909
F87.39627809267792
aF1.5491288555620486
aF0.5914976926724065
aF66.22101626949775
aF3.8961237994408586
aF1.1183015155931637
aa(lp910
F80.29939308245724
aF0.6294933113877982
aF2.0497731372848977
aF84.83804532314491
aF2.5725943222447203
aF0.3809848867254668
aa(lp911
F21.66071758579572
aF0.5482492686815182
aF1.733376293485903
aF3.5800899887754367
aF3.3506726424044153
aF0.6788241040271008
aa(lp912
F18.399083263096784
aF1.9568766455792697
aF2.3208266354277756
aF63.52909013700769
aF0.9994064250145296
aF2.162282024121464
aa(lp913
F59.84411024265886
aF0.358354575377704
aF0.8066974964436405
aF7.084324610838855
aF2.33504156267003
aF1.8816524369970602
aa(lp914
F17.29976690713698
aF2.0140931547839847
aF0.020752491677900387
aF6.621634322834813
aF0.8549210676475771
aF2.4367507382866993
aa(lp915
F35.16239505558817
aF4.339152500082226
aF2.3106001783033117
aF31.188536988079218
aF4.355809694966666
aF0.12884928207857915
aa(lp916
F15.177519602760858
aF3.1391975165521293
aF2.4568658240966683
aF55.616846572785484
aF2.249852623191606
aF0.4889019126338574
aa(lp917
F13.476254654322217
aF2.301830548942818
aF0.01084608196060155
aF5.763548423129805
aF1.9448806310797329
aF1.588976851637408
aa(lp918
F41.97791770885064
aF2.8333440429813646
aF2.6689730335737565
aF29.17408979302931
aF4.849170306758482
aF2.9543677229733145
aa(lp919
F45.688053826413565
aF4.137319955186072
aF2.803016207943688
aF89.51942353706895
aF4.412179766571399
aF0.888890857377417
aa(lp920
F80.58242369941418
aF3.801118993119918
aF2.5286080941295364
aF31.820051124864634
aF3.928658795439665
aF2.565595821731479
aa(lp921
F50.849626541377035
aF0.6617760523923238
aF0.4917903868965465
aF10.863239892598708
aF1.640445933131247
aF1.5953977536335873
aa(lp922
F52.23128213805472
aF4.778961613619627
aF0.17425454547167119
aF38.136442056276344
aF0.5310715688666012
aF1.2950959486048887
aa(lp923
F49.71052047502912
aF4.98460962285637
aF0.1485851794345504
aF90.00182594592725
aF2.205914555999857
aF1.9397051514748025
aa(lp924
F72.25383034529578
aF2.083563055637505
aF2.210168587521411
aF24.989590904055582
aF0.18001411376508902
aF1.8041273586346893
aa(lp925
F84.21876051570938
aF3.7299908639575197
aF1.9143247817242364
aF90.24695424694748
aF0.9916492920193287
aF2.546418822794422
aa(lp926
F96.21022514964326
aF2.4927366718384696
aF0.5107487534032376
aF33.417845947430315
aF1.5550542659404414
aF0.7149770436500995
aa(lp927
F6.374572280446911
aF2.6436527473302367
aF0.48576428963760065
aF83.37276912660485
aF2.0243014994859165
aF1.3938153233765973
aa(lp928
F79.30993656918265
aF0.2704770238214854
aF0.21600602273944536
aF26.899335777603262
aF3.18217511388936
aF0.9642199802044483
aa(lp929
F39.474482398363065
aF2.5105967630811405
aF2.915023231105531
aF41.68477505212383
aF2.0159408958437366
aF1.055308607363667
aa(lp930
F68.83701743815222
aF2.0240996237976407
aF2.4356618904388894
aF52.597834920184795
aF3.98569619583503
aF0.5402287319589705
aa(lp931
F13.86563771331768
aF4.929602343005338
aF2.4958605191285086
aF46.034327293239386
aF4.063038101580147
aF1.812855386447753
aa(lp932
F59.111979543656545
aF2.491763690755518
aF1.8949129588036406
aF90.95248885980016
aF1.5192963439077873
aF0.10367236326760598
aa(lp933
F70.57463313437856
aF0.14053578791564159
aF1.7939274047854328
aF48.25727538190871
aF1.327508589824471
aF1.3981785488479266
aa(lp934
F99.64464015920005
aF1.4434251335527333
aF1.5808910370467357
aF91.07776076495622
aF1.5987068290932505
aF2.2723582410447327
aa(lp935
F17.689281270943646
aF3.112522840981292
aF2.959218947503489
aF92.75855576816707
aF2.48700132062517
aF0.9073058802582813
aa(lp936
F5.2991014344690885
aF0.3762386640703319
aF0.8103054096964232
aF83.66730502037967
aF4.194300049937152
aF2.4795485188593953
aa(lp937
F94.69744993679767
aF3.831886249115132
aF2.870158424053743
aF91.33048303121565
aF2.6602050584917865
aF2.668358331993443
aa(lp938
F75.67747687483778
aF0.06350056848759389
aF0.8249064107171266
aF7.515458437968203
aF4.305824456868131
aF1.9332540650228736
aa(lp939
F46.45336496777729
aF0.5677343665962725
aF0.5478021768526717
aF6.931874425980899
aF1.0813922022242473
aF2.1292802485703612
aa(lp940
F78.39796063963408
aF3.7615675639890016
aF2.5865994187865966
aF69.53646950978165
aF1.8171600586987173
aF1.7778028104039576
aa(lp941
F1.0124315134310335
aF1.0618462670107265
aF2.5610836848576923
aF55.70822963134046
aF3.0517963846595593
aF0.3036042343574459
aa(lp942
F18.966922204466595
aF1.0427370470791781
aF1.5638544491437534
aF69.11804029322414
aF3.2662441564989964
aF2.4672789917333975
aa(lp943
F8.017771950882867
aF1.6710705398866743
aF0.6412274385142174
aF81.5039655483889
aF0.39576340256887554
aF2.809277840990446
aa(lp944
F49.336952274494905
aF4.807955492440871
aF0.934370639803887
aF61.422935489490726
aF1.003178574963945
aF0.11261534483724744
aa(lp945
F95.99501598044141
aF1.1120728977212846
aF2.5087990973720973
aF35.70672532400315
aF3.9563838965705393
aF2.5359114755780747
aa(lp946
F5.689774123227376
aF3.3361335789059265
aF0.7177713632841656
aF50.03678524741484
aF0.3974702727914514
aF0.0018167328309223185
aa(lp947
F58.1910243175534
aF0.6148155034437153
aF2.6977322354062077
aF55.269600663454966
aF3.4374493072611316
aF2.7812383206617204
aa(lp948
F95.49264284098736
aF1.0428830347728157
aF0.06348051435418378
aF8.552419780852627
aF4.8639967109741296
aF2.116979668863069
aa(lp949
F79.5503152791244
aF0.8869497545818178
aF0.45873004660232264
aF33.67917717589316
aF0.7265328001993632
aF1.7010392270245265
aa(lp950
F47.06501077655623
aF0.25698088214193004
aF0.8539076416821739
aF27.838555834385858
aF0.4573512020619719
aF1.380277935978819
aa(lp951
F50.65562508461417
aF0.10270503965664035
aF1.5188159062012643
aF89.43368736768109
aF3.380600445912335
aF2.240294140839003
aa(lp952
F46.1936432494168
aF1.7917342402164764
aF0.8153711781244599
aF57.84102699847037
aF0.31068402298993436
aF2.2213808692037356
aa(lp953
F63.524088637141496
aF4.265239740405075
aF0.4404691682448132
aF92.55566444730303
aF0.3460106752741815
aF0.08076465094384155
aa(lp954
F77.88813625396398
aF4.0286665434488125
aF0.2592722572495002
aF43.165663973068824
aF1.1322771600220538
aF2.667520181239964
aa(lp955
F35.74972000850172
aF3.504060882200315
aF0.8860370909717666
aF81.8490797072761
aF2.0782047961980057
aF2.8309049679257265
aa(lp956
F26.77654179145733
aF4.987343123242928
aF1.0057295230909542
aF63.90477931667484
aF3.674390751860188
aF1.3970287442411662
aa(lp957
F5.401818148136927
aF2.3591312991167426
aF1.232503450572239
aF59.81284219043441
aF3.208090022579095
aF2.1901195862079303
aa(lp958
F63.33186514056095
aF3.734818126297534
aF2.3051345179161413
aF96.89490802795771
aF2.1635577644791053
aF0.7844585667025156
aa(lp959
F20.817289024255548
aF3.265318914559201
aF1.9737230318521375
aF8.711617383760284
aF3.0282983461267614
aF0.9265496907793115
aa(lp960
F81.97335421838775
aF3.610124600211938
aF0.3775712399425758
aF33.342988766470626
aF2.558247754769207
aF1.6097865170060113
aa(lp961
F52.62234692399834
aF3.7023971084393303
aF2.1065239676434513
aF74.01417527329005
aF0.12235522087982786
aF1.810118034952077
aa(lp962
F92.38069409676807
aF2.2886112768905336
aF2.5285098019606327
aF77.16610208468147
aF1.567583020724752
aF2.833189490270224
aa(lp963
F85.08082438391841
aF2.160490878892643
aF1.4414658072376931
aF44.197891565791956
aF1.777422445310202
aF0.7333173773790812
aa(lp964
F83.9422795445216
aF1.4401515412310255
aF0.24588554685739883
aF34.357906490058575
aF2.1023213458711627
aF1.420345227735797
aa(lp965
F8.862816421151798
aF1.5244997205335997
aF2.1467088464208004
aF79.19899883577922
aF1.9168836278024282
aF0.6618285955154533
aa(lp966
F78.71799806780245
aF4.994833167516211
aF0.3335960600494138
aF7.306555593220421
aF3.8155793071335893
aF0.39797854406514366
aa(lp967
F50.67975458659569
aF4.396584911359194
aF1.529413714759411
aF53.73026822179469
aF2.1071036427541427
aF2.6839425115924556
aa(lp968
F43.631465052757456
aF4.813428736314443
aF0.8772377640847869
aF90.7757815115525
aF1.6848398106323499
aF0.5187727164747031
aa(lp969
F20.516406935562603
aF0.42676147855489843
aF1.5689928150720882
aF32.78793946416664
aF0.5402423390456945
aF2.5280536273419045
aa(lp970
F24.908517760936057
aF2.0815357869186055
aF0.8428994918377775
aF31.598997470530254
aF0.1713225096439719
aF1.9279027245574172
aa(lp971
F58.86306075806386
aF3.1404916958348577
aF2.562660707008389
aF75.39269129964039
aF3.191934947994513
aF1.2765334681029497
aa(lp972
F23.360340487585095
aF4.644563120569839
aF2.764223863329502
aF6.488315251779597
aF3.6647941622520714
aF0.3680369847305026
aa(lp973
F56.75426777261035
aF3.382826440934452
aF2.124482740192425
aF56.147101360927756
aF0.9143419681258924
aF2.7644710477455687
aa(lp974
F38.91760393536
aF3.419652195212142
aF1.517135353201887
aF67.40237036929246
aF2.0582615747851114
aF2.2673997375832102
aa(lp975
F88.14950318822432
aF3.592755244438802
aF0.4663901720657888
aF5.341162804612775
aF1.9345467566771357
aF0.7845793683066438
aa(lp976
F74.17666276995833
aF2.001753157090972
aF2.7448565087576977
aF5.294594408370945
aF4.064127062477862
aF2.6782442276803824
aa(lp977
F60.050425346988675
aF1.7486448612151189
aF0.861803904625465
aF47.95859392199703
aF0.44907707037153966
aF1.196796620018544
aa(lp978
F8.839492109554481
aF0.5926503062243987
aF1.8930976554821515
aF94.70963780892068
aF4.474190791861765
aF1.080061521109152
aa(lp979
F73.56148914073482
aF3.3577401738613224
aF1.7836926978818228
aF68.3457677998337
aF4.043546673828509
aF0.9582057238733527
aa(lp980
F77.1131452076502
aF1.1183224311335282
aF0.30082330995363915
aF35.099847976145725
aF4.589958325870917
aF1.17931215546818
aa(lp981
F36.41523385449522
aF3.395897793003387
aF2.7604550408539668
aF77.24619576246332
aF0.22682881499432095
aF1.748691087491042
aa(lp982
F77.20081890621617
aF3.224979610548053
aF1.2283143878835676
aF14.79238931745359
aF3.611141181814717
aF0.6147218480762534
aa(lp983
F47.067817266728554
aF4.575585521056912
aF1.874009153150003
aF26.62354575986001
aF4.815230731152189
aF2.0980202814478877
aa(lp984
F63.23466525137857
aF1.401746643518638
aF2.538618707929989
aF21.48054309003943
aF4.646458774749391
aF1.905011862365349
aa(lp985
F62.362138933935455
aF3.860799198158889
aF0.933439280967334
aF57.2373677033962
aF3.3750119300758485
aF1.1612360436520417
aa(lp986
F65.82537337288638
aF0.5660965376273375
aF1.3675199550304349
aF46.90136788666565
aF4.891895195054507
aF1.150875112996407
aa(lp987
F19.881614439108596
aF0.06875635673909641
aF1.765147331049091
aF42.22299173361996
aF0.9072891558004642
aF1.3881704800613477
aa(lp988
F23.873298151809806
aF2.5627872405533774
aF0.587095784339774
aF58.301350836278075
aF2.2599131569907502
aF1.8822392741732936
aa(lp989
F25.346400497550515
aF0.1797484856022069
aF0.7765201106752525
aF81.21602586706675
aF4.004915528417749
aF1.0617473106444624
aa(lp990
F3.5520744238159874
aF0.14401006834873054
aF1.6281144020494387
aF95.13554428486796
aF1.9609079580480249
aF0.5056729425749854
aa(lp991
F11.834233541699724
aF3.5925477675556
aF1.3088645439884656
aF74.05928388881988
aF3.1015852861486937
aF2.87425101190581
aa(lp992
F94.76458854706463
aF2.9102266654211615
aF2.173907113732313
aF27.23281822075354
aF3.0549105406803587
aF1.2428276551122113
aa(lp993
F55.13050604424019
aF0.31815190706855456
aF0.1986910934679802
aF50.67684274179396
aF2.903738589653486
aF2.7009700549038187
aa(lp994
F22.854196391266424
aF1.7736302329881708
aF1.2974035194320774
aF35.74376461941219
aF0.2816186454471198
aF0.15309809460304624
aa(lp995
F6.771924653520611
aF3.3571543407052706
aF0.21894927568512512
aF42.128915559486224
aF3.326599526272088
aF0.5947591799261394
aa(lp996
F28.633132037776264
aF4.118254518809078
aF1.803068055687672
aF93.09923871463461
aF1.2801006807174253
aF2.435256203344128
aa(lp997
F55.99995965887168
aF0.5383022636849116
aF1.5155849913070232
aF90.74255858845227
aF1.0073844676808448
aF0.3723041696056104
aa(lp998
F71.59136566416723
aF0.2675254742655714
aF1.424918402390196
aF4.0370345834143
aF2.9148448853506053
aF0.05696175505113221
aa(lp999
F42.36644522030502
aF2.507861918223063
aF1.479312608716052
aF24.052704080318343
aF2.114197196756569
aF2.771345789024395
aa(lp1000
F68.11700594064745
aF4.959898019220604
aF2.979351895276548
aF65.737672706651
aF0.8539777471010196
aF0.16344421819130317
aa.